
build/telosb/main.exe:     file format elf32-msp430


Disassembly of section .text:

00004000 <__watchdog_support>:
    4000:	55 42 20 01 	mov.b	&0x0120,r5	
    4004:	35 d0 08 5a 	bis	#23048,	r5	;#0x5a08
    4008:	82 45 54 18 	mov	r5,	&0x1854	

0000400c <__init_stack>:
    400c:	31 40 00 39 	mov	#14592,	r1	;#0x3900

00004010 <__do_copy_data>:
    4010:	3f 40 22 00 	mov	#34,	r15	;#0x0022
    4014:	0f 93       	tst	r15		
    4016:	08 24       	jz	$+18     	;abs 0x4028
    4018:	92 42 54 18 20 01 	mov	&0x1854,&0x0120	
    401e:	2f 83       	decd	r15		
    4020:	9f 4f 00 a1 00 11 	mov	-24320(r15),4352(r15);0xa100(r15), 0x1100(r15)
    4026:	f8 23       	jnz	$-14     	;abs 0x4018

00004028 <__do_clear_bss>:
    4028:	3f 40 32 07 	mov	#1842,	r15	;#0x0732
    402c:	0f 93       	tst	r15		
    402e:	07 24       	jz	$+16     	;abs 0x403e
    4030:	92 42 54 18 20 01 	mov	&0x1854,&0x0120	
    4036:	1f 83       	dec	r15		
    4038:	cf 43 22 11 	mov.b	#0,	4386(r15);r3 As==00, 0x1122(r15)
    403c:	f9 23       	jnz	$-12     	;abs 0x4030

0000403e <main>:
    403e:	21 83       	decd	r1		
    4040:	b0 12 66 4d 	call	#0x4d66	
    4044:	47 4f       	mov.b	r15,	r7	
    4046:	3d 40 28 00 	mov	#40,	r13	;#0x0028
    404a:	3e 40 ff 00 	mov	#255,	r14	;#0x00ff
    404e:	3f 40 e4 11 	mov	#4580,	r15	;#0x11e4
    4052:	b0 12 a2 9f 	call	#0x9fa2	
    4056:	f2 43 11 18 	mov.b	#-1,	&0x1811	;r3 As==11
    405a:	f2 43 39 18 	mov.b	#-1,	&0x1839	;r3 As==11
    405e:	b2 40 80 5a 20 01 	mov	#23168,	&0x0120	;#0x5a80
    4064:	a2 42 60 01 	mov	#4,	&0x0160	;r2 As==10
    4068:	82 43 2e 01 	mov	#0,	&0x012e	;r3 As==00
    406c:	a2 42 80 01 	mov	#4,	&0x0180	;r2 As==10
    4070:	82 43 1e 01 	mov	#0,	&0x011e	;r3 As==00
    4074:	b2 40 20 02 60 01 	mov	#544,	&0x0160	;#0x0220
    407a:	b2 40 20 01 80 01 	mov	#288,	&0x0180	;#0x0120
    4080:	f2 40 84 ff 57 00 	mov.b	#-124,	&0x0057	;#0xff84
    4086:	c2 43 58 00 	mov.b	#0,	&0x0058	;r3 As==00
    408a:	b2 40 00 40 82 01 	mov	#16384,	&0x0182	;#0x4000
    4090:	3b 40 0c 00 	mov	#12,	r11	;#0x000c
    4094:	3d 40 00 08 	mov	#2048,	r13	;#0x0800
    4098:	0e 43       	clr	r14		
    409a:	0c 4d       	mov	r13,	r12	
    409c:	0c de       	bis	r14,	r12	
    409e:	59 42 57 00 	mov.b	&0x0057,r9	
    40a2:	0a 4c       	mov	r12,	r10	
    40a4:	8a 10       	swpb	r10		
    40a6:	7a f0 07 00 	and.b	#7,	r10	;#0x0007
    40aa:	79 f0 f8 ff 	and.b	#-8,	r9	;#0xfff8
    40ae:	4a d9       	bis.b	r9,	r10	
    40b0:	c2 4a 57 00 	mov.b	r10,	&0x0057	
    40b4:	c2 4c 56 00 	mov.b	r12,	&0x0056	
    40b8:	79 40 03 00 	mov.b	#3,	r9	;#0x0003
    40bc:	0a 43       	clr	r10		
    40be:	08 43       	clr	r8		
    40c0:	0f 3c       	jmp	$+32     	;abs 0x40e0
    40c2:	18 42 90 01 	mov	&0x0190,r8	
    40c6:	38 52       	add	#8,	r8	;r2 As==11
    40c8:	82 48 92 01 	mov	r8,	&0x0192	
    40cc:	b2 f0 fe ff 82 01 	and	#-2,	&0x0182	;#0xfffe
    40d2:	92 b3 82 01 	bit	#1,	&0x0182	;r3 As==01
    40d6:	fd 27       	jz	$-4      	;abs 0x40d2
    40d8:	1f 42 70 01 	mov	&0x0170,r15	
    40dc:	08 4a       	mov	r10,	r8	
    40de:	0a 4f       	mov	r15,	r10	
    40e0:	79 53       	add.b	#-1,	r9	;r3 As==11
    40e2:	ef 23       	jnz	$-32     	;abs 0x40c2
    40e4:	0a 88       	sub	r8,	r10	
    40e6:	3a 90 01 04 	cmp	#1025,	r10	;#0x0401
    40ea:	01 2c       	jc	$+4      	;abs 0x40ee
    40ec:	0e 4c       	mov	r12,	r14	
    40ee:	0d 11       	rra	r13		
    40f0:	3b 53       	add	#-1,	r11	;r3 As==11
    40f2:	d3 23       	jnz	$-88     	;abs 0x409a
    40f4:	0f 4e       	mov	r14,	r15	
    40f6:	3f f0 e0 00 	and	#224,	r15	;#0x00e0
    40fa:	3f 90 e0 00 	cmp	#224,	r15	;#0x00e0
    40fe:	02 20       	jnz	$+6      	;abs 0x4104
    4100:	3e f0 e0 ff 	and	#-32,	r14	;#0xffe0
    4104:	5c 42 57 00 	mov.b	&0x0057,r12	
    4108:	0d 4e       	mov	r14,	r13	
    410a:	8d 10       	swpb	r13		
    410c:	7d f0 07 00 	and.b	#7,	r13	;#0x0007
    4110:	7c f0 f8 ff 	and.b	#-8,	r12	;#0xfff8
    4114:	4d dc       	bis.b	r12,	r13	
    4116:	c2 4d 57 00 	mov.b	r13,	&0x0057	
    411a:	c2 4e 56 00 	mov.b	r14,	&0x0056	
    411e:	5e 42 57 00 	mov.b	&0x0057,r14	
    4122:	7e f0 07 00 	and.b	#7,	r14	;#0x0007
    4126:	7e d0 80 ff 	bis.b	#-128,	r14	;#0xff80
    412a:	c2 4e 57 00 	mov.b	r14,	&0x0057	
    412e:	e2 42 58 00 	mov.b	#4,	&0x0058	;r2 As==10
    4132:	f2 f0 fd ff 00 00 	and.b	#-3,	&0x0000	;#0xfffd
    4138:	82 43 70 01 	mov	#0,	&0x0170	;r3 As==00
    413c:	b2 40 02 02 60 01 	mov	#514,	&0x0160	;#0x0202
    4142:	82 43 90 01 	mov	#0,	&0x0190	;r3 As==00
    4146:	b2 40 02 01 80 01 	mov	#258,	&0x0180	;#0x0102
    414c:	1e 42 60 01 	mov	&0x0160,r14	
    4150:	3e f0 cf ff 	and	#-49,	r14	;#0xffcf
    4154:	3e d0 20 00 	bis	#32,	r14	;#0x0020
    4158:	82 4e 60 01 	mov	r14,	&0x0160	
    415c:	1e 42 80 01 	mov	&0x0180,r14	
    4160:	3e f0 cf ff 	and	#-49,	r14	;#0xffcf
    4164:	3e d0 20 00 	bis	#32,	r14	;#0x0020
    4168:	82 4e 80 01 	mov	r14,	&0x0180	
    416c:	c2 43 26 00 	mov.b	#0,	&0x0026	;r3 As==00
    4170:	c2 43 2e 00 	mov.b	#0,	&0x002e	;r3 As==00
    4174:	c2 43 1b 00 	mov.b	#0,	&0x001b	;r3 As==00
    4178:	c2 43 1f 00 	mov.b	#0,	&0x001f	;r3 As==00
    417c:	c2 43 33 00 	mov.b	#0,	&0x0033	;r3 As==00
    4180:	c2 43 37 00 	mov.b	#0,	&0x0037	;r3 As==00
    4184:	c2 43 21 00 	mov.b	#0,	&0x0021	;r3 As==00
    4188:	f2 40 e0 ff 22 00 	mov.b	#-32,	&0x0022	;#0xffe0
    418e:	f2 40 30 00 29 00 	mov.b	#48,	&0x0029	;#0x0030
    4194:	f2 40 7b 00 2a 00 	mov.b	#123,	&0x002a	;#0x007b
    419a:	c2 43 19 00 	mov.b	#0,	&0x0019	;r3 As==00
    419e:	f2 40 f1 ff 1a 00 	mov.b	#-15,	&0x001a	;#0xfff1
    41a4:	f2 40 dd ff 1d 00 	mov.b	#-35,	&0x001d	;#0xffdd
    41aa:	f2 40 fd ff 1e 00 	mov.b	#-3,	&0x001e	;#0xfffd
    41b0:	f2 43 31 00 	mov.b	#-1,	&0x0031	;r3 As==11
    41b4:	f2 43 32 00 	mov.b	#-1,	&0x0032	;r3 As==11
    41b8:	c2 43 35 00 	mov.b	#0,	&0x0035	;r3 As==00
    41bc:	f2 43 36 00 	mov.b	#-1,	&0x0036	;r3 As==11
    41c0:	c2 43 25 00 	mov.b	#0,	&0x0025	;r3 As==00
    41c4:	c2 43 2d 00 	mov.b	#0,	&0x002d	;r3 As==00
    41c8:	1f 42 70 01 	mov	&0x0170,r15	
    41cc:	1e 42 70 01 	mov	&0x0170,r14	
    41d0:	0e 8f       	sub	r15,	r14	
    41d2:	3e 90 01 28 	cmp	#10241,	r14	;#0x2801
    41d6:	fa 2b       	jnc	$-10     	;abs 0x41cc
    41d8:	e2 d3 1a 00 	bis.b	#2,	&0x001a	;r3 As==10
    41dc:	f2 d2 1a 00 	bis.b	#8,	&0x001a	;r2 As==11
    41e0:	f2 d0 80 ff 1e 00 	bis.b	#-128,	&0x001e	;#0xff80
    41e6:	f2 d0 10 00 1e 00 	bis.b	#16,	&0x001e	;#0x0010
    41ec:	f2 d0 80 ff 1d 00 	bis.b	#-128,	&0x001d	;#0xff80
    41f2:	f2 d0 10 00 1d 00 	bis.b	#16,	&0x001d	;#0x0010
    41f8:	03 43       	nop			
    41fa:	03 43       	nop			
    41fc:	f2 f0 ef ff 1d 00 	and.b	#-17,	&0x001d	;#0xffef
    4202:	f2 f0 f7 ff 19 00 	and.b	#-9,	&0x0019	;#0xfff7
    4208:	5f 43       	mov.b	#1,	r15	;r3 As==01
    420a:	b0 12 6a 47 	call	#0x476a	
    420e:	4f 43       	clr.b	r15		
    4210:	b0 12 6a 47 	call	#0x476a	
    4214:	5f 43       	mov.b	#1,	r15	;r3 As==01
    4216:	b0 12 6a 47 	call	#0x476a	
    421a:	5f 43       	mov.b	#1,	r15	;r3 As==01
    421c:	b0 12 6a 47 	call	#0x476a	
    4220:	5f 43       	mov.b	#1,	r15	;r3 As==01
    4222:	b0 12 6a 47 	call	#0x476a	
    4226:	4f 43       	clr.b	r15		
    4228:	b0 12 6a 47 	call	#0x476a	
    422c:	4f 43       	clr.b	r15		
    422e:	b0 12 6a 47 	call	#0x476a	
    4232:	5f 43       	mov.b	#1,	r15	;r3 As==01
    4234:	b0 12 6a 47 	call	#0x476a	
    4238:	f2 d0 10 00 1d 00 	bis.b	#16,	&0x001d	;#0x0010
    423e:	f2 d2 19 00 	bis.b	#8,	&0x0019	;r2 As==11
    4242:	e2 d3 19 00 	bis.b	#2,	&0x0019	;r3 As==10
    4246:	f2 d0 10 00 32 00 	bis.b	#16,	&0x0032	;#0x0010
    424c:	f2 d0 20 00 32 00 	bis.b	#32,	&0x0032	;#0x0020
    4252:	f2 d0 40 00 32 00 	bis.b	#64,	&0x0032	;#0x0040
    4258:	f2 d0 10 00 31 00 	bis.b	#16,	&0x0031	;#0x0010
    425e:	f2 d0 20 00 31 00 	bis.b	#32,	&0x0031	;#0x0020
    4264:	f2 d0 40 00 31 00 	bis.b	#64,	&0x0031	;#0x0040
    426a:	b0 12 96 95 	call	#0x9596	
    426e:	4f 93       	tst.b	r15		
    4270:	fc 23       	jnz	$-6      	;abs 0x426a
    4272:	f2 43 1e 18 	mov.b	#-1,	&0x181e	;r3 As==11
    4276:	f2 43 1f 18 	mov.b	#-1,	&0x181f	;r3 As==11
    427a:	b2 40 de 11 12 18 	mov	#4574,	&0x1812	;#0x11de
    4280:	c2 43 d2 13 	mov.b	#0,	&0x13d2	;r3 As==00
    4284:	b0 12 b8 46 	call	#0x46b8	
    4288:	82 43 a8 01 	mov	#0,	&0x01a8	;r3 As==00
    428c:	82 43 a4 01 	mov	#0,	&0x01a4	;r3 As==00
    4290:	b0 12 92 46 	call	#0x4692	
    4294:	3f d0 0c 00 	bis	#12,	r15	;#0x000c
    4298:	b0 12 8c 46 	call	#0x468c	
    429c:	c2 43 02 13 	mov.b	#0,	&0x1302	;r3 As==00
    42a0:	c2 43 bc 11 	mov.b	#0,	&0x11bc	;r3 As==00
    42a4:	3c 40 3c 18 	mov	#6204,	r12	;#0x183c
    42a8:	0d 43       	clr	r13		
    42aa:	0e 4d       	mov	r13,	r14	
    42ac:	0e 5e       	rla	r14		
    42ae:	0e 5e       	rla	r14		
    42b0:	3e 50 a6 14 	add	#5286,	r14	;#0x14a6
    42b4:	8c 4e 00 00 	mov	r14,	0(r12)	;0x0000(r12)
    42b8:	1d 53       	inc	r13		
    42ba:	2c 53       	incd	r12		
    42bc:	3d 90 0c 00 	cmp	#12,	r13	;#0x000c
    42c0:	f4 23       	jnz	$-22     	;abs 0x42aa
    42c2:	f2 40 0c 00 fe 12 	mov.b	#12,	&0x12fe	;#0x000c
    42c8:	c2 43 23 18 	mov.b	#0,	&0x1823	;r3 As==00
    42cc:	3d 40 da 14 	mov	#5338,	r13	;#0x14da
    42d0:	0e 43       	clr	r14		
    42d2:	02 12       	push	r2		
    42d4:	32 c2       	dint			
    42d6:	03 43       	nop			
    42d8:	82 4e 32 01 	mov	r14,	&0x0132	
    42dc:	b2 40 34 00 38 01 	mov	#52,	&0x0138	;#0x0034
    42e2:	1f 42 3a 01 	mov	&0x013a,r15	
    42e6:	32 41       	pop	r2		
    42e8:	3f 50 1e 15 	add	#5406,	r15	;#0x151e
    42ec:	8d 4f 00 00 	mov	r15,	0(r13)	;0x0000(r13)
    42f0:	1e 53       	inc	r14		
    42f2:	2d 53       	incd	r13		
    42f4:	3e 90 0c 00 	cmp	#12,	r14	;#0x000c
    42f8:	ec 23       	jnz	$-38     	;abs 0x42d2
    42fa:	f2 40 0c 00 ff 12 	mov.b	#12,	&0x12ff	;#0x000c
    4300:	c2 43 da 12 	mov.b	#0,	&0x12da	;r3 As==00
    4304:	c2 43 38 11 	mov.b	#0,	&0x1138	;r3 As==00
    4308:	c2 43 36 11 	mov.b	#0,	&0x1136	;r3 As==00
    430c:	82 43 14 18 	mov	#0,	&0x1814	;r3 As==00
    4310:	82 43 16 18 	mov	#0,	&0x1816	;r3 As==00
    4314:	c2 43 c0 11 	mov.b	#0,	&0x11c0	;r3 As==00
    4318:	b2 43 ae 17 	mov	#-1,	&0x17ae	;r3 As==11
    431c:	82 43 b0 17 	mov	#0,	&0x17b0	;r3 As==00
    4320:	c2 43 b2 17 	mov.b	#0,	&0x17b2	;r3 As==00
    4324:	c2 43 b3 17 	mov.b	#0,	&0x17b3	;r3 As==00
    4328:	c2 43 e2 11 	mov.b	#0,	&0x11e2	;r3 As==00
    432c:	b2 40 9e 12 e6 12 	mov	#4766,	&0x12e6	;#0x129e
    4332:	b2 40 ca 12 2c 18 	mov	#4810,	&0x182c	;#0x12ca
    4338:	b2 40 6a 14 f0 12 	mov	#5226,	&0x12f0	;#0x146a
    433e:	c2 43 db 11 	mov.b	#0,	&0x11db	;r3 As==00
    4342:	3e 40 4b 13 	mov	#4939,	r14	;#0x134b
    4346:	ce 43 00 00 	mov.b	#0,	0(r14)	;r3 As==00, 0x0000(r14)
    434a:	3e 50 0e 00 	add	#14,	r14	;#0x000e
    434e:	3e 90 d7 13 	cmp	#5079,	r14	;#0x13d7
    4352:	f9 23       	jnz	$-12     	;abs 0x4346
    4354:	b2 40 00 04 7a 11 	mov	#1024,	&0x117a	;#0x0400
    435a:	c2 43 84 11 	mov.b	#0,	&0x1184	;r3 As==00
    435e:	82 43 7c 11 	mov	#0,	&0x117c	;r3 As==00
    4362:	82 43 7e 11 	mov	#0,	&0x117e	;r3 As==00
    4366:	82 43 80 11 	mov	#0,	&0x1180	;r3 As==00
    436a:	82 43 82 11 	mov	#0,	&0x1182	;r3 As==00
    436e:	c2 43 45 13 	mov.b	#0,	&0x1345	;r3 As==00
    4372:	c2 43 a2 14 	mov.b	#0,	&0x14a2	;r3 As==00
    4376:	c2 43 d9 11 	mov.b	#0,	&0x11d9	;r3 As==00
    437a:	f2 43 32 12 	mov.b	#-1,	&0x1232	;r3 As==11
    437e:	b2 43 c2 11 	mov	#-1,	&0x11c2	;r3 As==11
    4382:	c2 43 c4 11 	mov.b	#0,	&0x11c4	;r3 As==00
    4386:	b2 43 c6 11 	mov	#-1,	&0x11c6	;r3 As==11
    438a:	c2 43 c8 11 	mov.b	#0,	&0x11c8	;r3 As==00
    438e:	b2 43 ca 11 	mov	#-1,	&0x11ca	;r3 As==11
    4392:	c2 43 cc 11 	mov.b	#0,	&0x11cc	;r3 As==00
    4396:	b2 43 ce 11 	mov	#-1,	&0x11ce	;r3 As==11
    439a:	c2 43 d0 11 	mov.b	#0,	&0x11d0	;r3 As==00
    439e:	b0 12 72 5b 	call	#0x5b72	
    43a2:	c2 4e 8f 17 	mov.b	r14,	&0x178f	
    43a6:	1f 42 20 11 	mov	&0x1120,r15	
    43aa:	1f 53       	inc	r15		
    43ac:	82 4f d2 12 	mov	r15,	&0x12d2	
    43b0:	82 43 d4 12 	mov	#0,	&0x12d4	;r3 As==00
    43b4:	b2 f0 ef ff 86 01 	and	#-17,	&0x0186	;#0xffef
    43ba:	b2 40 00 40 86 01 	mov	#16384,	&0x0186	;#0x4000
    43c0:	b2 40 dc 17 74 11 	mov	#6108,	&0x1174	;#0x17dc
    43c6:	f2 f0 ef ff 22 00 	and.b	#-17,	&0x0022	;#0xffef
    43cc:	e2 d2 1e 00 	bis.b	#4,	&0x001e	;r2 As==10
    43d0:	f2 f0 fd ff 1e 00 	and.b	#-3,	&0x001e	;#0xfffd
    43d6:	b2 f0 ef ff 82 01 	and	#-17,	&0x0182	;#0xffef
    43dc:	b2 40 00 40 82 01 	mov	#16384,	&0x0182	;#0x4000
    43e2:	f2 43 e8 12 	mov.b	#-1,	&0x12e8	;r3 As==11
    43e6:	c2 43 f8 14 	mov.b	#0,	&0x14f8	;r3 As==00
    43ea:	c2 43 f9 14 	mov.b	#0,	&0x14f9	;r3 As==00
    43ee:	c2 43 fa 14 	mov.b	#0,	&0x14fa	;r3 As==00
    43f2:	c2 43 fb 14 	mov.b	#0,	&0x14fb	;r3 As==00
    43f6:	c2 43 fc 14 	mov.b	#0,	&0x14fc	;r3 As==00
    43fa:	c2 43 fd 14 	mov.b	#0,	&0x14fd	;r3 As==00
    43fe:	e2 d2 1e 00 	bis.b	#4,	&0x001e	;r2 As==10
    4402:	f2 d0 40 00 1e 00 	bis.b	#64,	&0x001e	;#0x0040
    4408:	f2 d0 20 00 1e 00 	bis.b	#32,	&0x001e	;#0x0020
    440e:	b0 12 66 4d 	call	#0x4d66	
    4412:	1b 42 14 11 	mov	&0x1114,r11	
    4416:	b0 12 78 4d 	call	#0x4d78	
    441a:	82 4b ee 12 	mov	r11,	&0x12ee	
    441e:	b0 12 06 49 	call	#0x4906	
    4422:	82 4c 14 15 	mov	r12,	&0x1514	
    4426:	82 4d 16 15 	mov	r13,	&0x1516	
    442a:	82 4e 18 15 	mov	r14,	&0x1518	
    442e:	82 4f 1a 15 	mov	r15,	&0x151a	
    4432:	d2 42 13 11 c8 12 	mov.b	&0x1113,&0x12c8	
    4438:	c2 43 c9 12 	mov.b	#0,	&0x12c9	;r3 As==00
    443c:	f2 40 1f 00 f4 14 	mov.b	#31,	&0x14f4	;#0x001f
    4442:	f2 40 1a 00 1d 15 	mov.b	#26,	&0x151d	;#0x001a
    4448:	b0 12 06 49 	call	#0x4906	
    444c:	82 4c 14 15 	mov	r12,	&0x1514	
    4450:	82 4d 16 15 	mov	r13,	&0x1516	
    4454:	82 4e 18 15 	mov	r14,	&0x1518	
    4458:	82 4f 1a 15 	mov	r15,	&0x151a	
    445c:	3e 40 14 15 	mov	#5396,	r14	;#0x1514
    4460:	0d 4e       	mov	r14,	r13	
    4462:	3d 50 07 00 	add	#7,	r13	;#0x0007
    4466:	0c 43       	clr	r12		
    4468:	6f 4e       	mov.b	@r14,	r15	
    446a:	ee 4d 00 00 	mov.b	@r13,	0(r14)	;0x0000(r14)
    446e:	cd 4f 00 00 	mov.b	r15,	0(r13)	;0x0000(r13)
    4472:	1c 53       	inc	r12		
    4474:	1e 53       	inc	r14		
    4476:	3d 53       	add	#-1,	r13	;r3 As==11
    4478:	2c 92       	cmp	#4,	r12	;r2 As==10
    447a:	f6 23       	jnz	$-18     	;abs 0x4468
    447c:	d2 43 2a 12 	mov.b	#1,	&0x122a	;r3 As==01
    4480:	c2 43 2a 18 	mov.b	#0,	&0x182a	;r3 As==00
    4484:	d2 43 cf 12 	mov.b	#1,	&0x12cf	;r3 As==01
    4488:	c2 43 0e 15 	mov.b	#0,	&0x150e	;r3 As==00
    448c:	b0 12 96 95 	call	#0x9596	
    4490:	4f 93       	tst.b	r15		
    4492:	fc 23       	jnz	$-6      	;abs 0x448c
    4494:	4f 47       	mov.b	r7,	r15	
    4496:	b0 12 78 4d 	call	#0x4d78	
    449a:	32 d2       	eint			
    449c:	6f 43       	mov.b	#2,	r15	;r3 As==10
    449e:	b0 12 52 58 	call	#0x5852	
    44a2:	4f 93       	tst.b	r15		
    44a4:	19 20       	jnz	$+52     	;abs 0x44d8
    44a6:	5f 43       	mov.b	#1,	r15	;r3 As==01
    44a8:	b0 12 52 58 	call	#0x5852	
    44ac:	4f 93       	tst.b	r15		
    44ae:	14 20       	jnz	$+42     	;abs 0x44d8
    44b0:	b0 12 52 58 	call	#0x5852	
    44b4:	4f 93       	tst.b	r15		
    44b6:	10 24       	jz	$+34     	;abs 0x44d8
    44b8:	5e 43       	mov.b	#1,	r14	;r3 As==01
    44ba:	6f 42       	mov.b	#4,	r15	;r2 As==10
    44bc:	b0 12 96 66 	call	#0x6696	
    44c0:	82 93 4e 11 	tst	&0x114e	
    44c4:	05 24       	jz	$+12     	;abs 0x44d0
    44c6:	7f 40 14 00 	mov.b	#20,	r15	;#0x0014
    44ca:	b0 12 80 4d 	call	#0x4d80	
    44ce:	04 3c       	jmp	$+10     	;abs 0x44d8
    44d0:	7f 40 15 00 	mov.b	#21,	r15	;#0x0015
    44d4:	b0 12 80 4d 	call	#0x4d80	
    44d8:	b0 12 66 4d 	call	#0x4d66	
    44dc:	4a 4f       	mov.b	r15,	r10	
    44de:	86 3c       	jmp	$+270    	;abs 0x45ec
    44e0:	c2 93 1b 11 	tst.b	&0x111b	
    44e4:	77 24       	jz	$+240    	;abs 0x45d4
    44e6:	b2 b0 10 00 62 01 	bit	#16,	&0x0162	;#0x0010
    44ec:	08 20       	jnz	$+18     	;abs 0x44fe
    44ee:	b2 b0 10 00 64 01 	bit	#16,	&0x0164	;#0x0010
    44f4:	04 20       	jnz	$+10     	;abs 0x44fe
    44f6:	b2 b0 10 00 66 01 	bit	#16,	&0x0166	;#0x0010
    44fc:	07 24       	jz	$+16     	;abs 0x450c
    44fe:	1e 42 60 01 	mov	&0x0160,r14	
    4502:	3e f0 00 03 	and	#768,	r14	;#0x0300
    4506:	3e 90 00 02 	cmp	#512,	r14	;#0x0200
    450a:	2e 24       	jz	$+94     	;abs 0x4568
    450c:	5f 42 04 00 	mov.b	&0x0004,r15	
    4510:	3f b0 c0 00 	bit	#192,	r15	;#0x00c0
    4514:	05 24       	jz	$+12     	;abs 0x4520
    4516:	5f 42 71 00 	mov.b	&0x0071,r15	
    451a:	3f f0 20 00 	and	#32,	r15	;#0x0020
    451e:	26 20       	jnz	$+78     	;abs 0x456c
    4520:	5f 42 05 00 	mov.b	&0x0005,r15	
    4524:	3f b0 30 00 	bit	#48,	r15	;#0x0030
    4528:	05 24       	jz	$+12     	;abs 0x4534
    452a:	5f 42 79 00 	mov.b	&0x0079,r15	
    452e:	3f f0 20 00 	and	#32,	r15	;#0x0020
    4532:	1e 20       	jnz	$+62     	;abs 0x4570
    4534:	5f 42 70 00 	mov.b	&0x0070,r15	
    4538:	1f f3       	and	#1,	r15	;r3 As==01
    453a:	1c 24       	jz	$+58     	;abs 0x4574
    453c:	5f 42 71 00 	mov.b	&0x0071,r15	
    4540:	3f f0 20 00 	and	#32,	r15	;#0x0020
    4544:	1a 24       	jz	$+54     	;abs 0x457a
    4546:	5f 42 72 00 	mov.b	&0x0072,r15	
    454a:	3f f0 20 00 	and	#32,	r15	;#0x0020
    454e:	18 24       	jz	$+50     	;abs 0x4580
    4550:	5f 42 70 00 	mov.b	&0x0070,r15	
    4554:	2f f2       	and	#4,	r15	;r2 As==10
    4556:	17 24       	jz	$+48     	;abs 0x4586
    4558:	5f 42 70 00 	mov.b	&0x0070,r15	
    455c:	3f f0 20 00 	and	#32,	r15	;#0x0020
    4560:	15 20       	jnz	$+44     	;abs 0x458c
    4562:	7e 40 05 00 	mov.b	#5,	r14	;#0x0005
    4566:	13 3c       	jmp	$+40     	;abs 0x458e
    4568:	6e 43       	mov.b	#2,	r14	;r3 As==10
    456a:	11 3c       	jmp	$+36     	;abs 0x458e
    456c:	6e 43       	mov.b	#2,	r14	;r3 As==10
    456e:	0f 3c       	jmp	$+32     	;abs 0x458e
    4570:	6e 43       	mov.b	#2,	r14	;r3 As==10
    4572:	0d 3c       	jmp	$+28     	;abs 0x458e
    4574:	7e 40 05 00 	mov.b	#5,	r14	;#0x0005
    4578:	0a 3c       	jmp	$+22     	;abs 0x458e
    457a:	7e 40 05 00 	mov.b	#5,	r14	;#0x0005
    457e:	07 3c       	jmp	$+16     	;abs 0x458e
    4580:	7e 40 05 00 	mov.b	#5,	r14	;#0x0005
    4584:	04 3c       	jmp	$+10     	;abs 0x458e
    4586:	7e 40 05 00 	mov.b	#5,	r14	;#0x0005
    458a:	01 3c       	jmp	$+4      	;abs 0x458e
    458c:	6e 43       	mov.b	#2,	r14	;r3 As==10
    458e:	b2 b0 10 00 a0 01 	bit	#16,	&0x01a0	;#0x0010
    4594:	19 24       	jz	$+52     	;abs 0x45c8
    4596:	b2 b0 10 00 a2 01 	bit	#16,	&0x01a2	;#0x0010
    459c:	05 24       	jz	$+12     	;abs 0x45a8
    459e:	b2 b2 a2 01 	bit	#8,	&0x01a2	;r2 As==11
    45a2:	0f 24       	jz	$+32     	;abs 0x45c2
    45a4:	6e 43       	mov.b	#2,	r14	;r3 As==10
    45a6:	10 3c       	jmp	$+34     	;abs 0x45c8
    45a8:	1f 42 a2 01 	mov	&0x01a2,r15	
    45ac:	3f b0 00 04 	bit	#1024,	r15	;#0x0400
    45b0:	0b 24       	jz	$+24     	;abs 0x45c8
    45b2:	1d 42 60 01 	mov	&0x0160,r13	
    45b6:	3d f0 00 03 	and	#768,	r13	;#0x0300
    45ba:	3d 90 00 02 	cmp	#512,	r13	;#0x0200
    45be:	04 20       	jnz	$+10     	;abs 0x45c8
    45c0:	02 3c       	jmp	$+6      	;abs 0x45c6
    45c2:	4e 43       	clr.b	r14		
    45c4:	01 3c       	jmp	$+4      	;abs 0x45c8
    45c6:	6e 43       	mov.b	#2,	r14	;r3 As==10
    45c8:	7e 90 05 00 	cmp.b	#5,	r14	;#0x0005
    45cc:	01 28       	jnc	$+4      	;abs 0x45d0
    45ce:	6e 42       	mov.b	#4,	r14	;r2 As==10
    45d0:	c2 4e 6a 11 	mov.b	r14,	&0x116a	
    45d4:	5e 42 6a 11 	mov.b	&0x116a,r14	
    45d8:	0e 5e       	rla	r14		
    45da:	1e 4e f0 a0 	mov	-24336(r14),r14	;0xa0f0(r14)
    45de:	3e d2       	bis	#8,	r14	;r2 As==11
    45e0:	81 4e 00 00 	mov	r14,	0(r1)	;0x0000(r1)
    45e4:	22 d1       	bis	@r1,	r2	
    45e6:	32 c2       	dint			
    45e8:	03 43       	nop			
    45ea:	03 43       	nop			
    45ec:	f2 93 11 18 	cmp.b	#-1,	&0x1811	;r3 As==11
    45f0:	77 27       	jz	$-272    	;abs 0x44e0
    45f2:	b0 12 0c 4c 	call	#0x4c0c	
    45f6:	4b 4f       	mov.b	r15,	r11	
    45f8:	7f 93       	cmp.b	#-1,	r15	;r3 As==11
    45fa:	72 27       	jz	$-282    	;abs 0x44e0
    45fc:	4f 4a       	mov.b	r10,	r15	
    45fe:	b0 12 78 4d 	call	#0x4d78	
    4602:	4f 4b       	mov.b	r11,	r15	
    4604:	b0 12 dc 7d 	call	#0x7ddc	
    4608:	67 3f       	jmp	$-304    	;abs 0x44d8

0000460a <__stop_progExec__>:
    460a:	32 d0 f0 00 	bis	#240,	r2	;#0x00f0
    460e:	fd 3f       	jmp	$-4      	;abs 0x460a

00004610 <__ctors_end>:
    4610:	30 40 0c a0 	br	#0xa00c	

00004614 <__nesc_ntoh_uint32>:
    4614:	0b 12       	push	r11		
    4616:	0b 4f       	mov	r15,	r11	
    4618:	6d 4f       	mov.b	@r15,	r13	
    461a:	0e 43       	clr	r14		
    461c:	0f 43       	clr	r15		
    461e:	0f 4d       	mov	r13,	r15	
    4620:	8f 10       	swpb	r15		
    4622:	0c 43       	clr	r12		
    4624:	0d 43       	clr	r13		
    4626:	5d 4b 01 00 	mov.b	1(r11),	r13	;0x0001(r11)
    462a:	0e dc       	bis	r12,	r14	
    462c:	0f dd       	bis	r13,	r15	
    462e:	5c 4b 03 00 	mov.b	3(r11),	r12	;0x0003(r11)
    4632:	0d 43       	clr	r13		
    4634:	0e dc       	bis	r12,	r14	
    4636:	0f dd       	bis	r13,	r15	
    4638:	5c 4b 02 00 	mov.b	2(r11),	r12	;0x0002(r11)
    463c:	4d ec       	xor.b	r12,	r13	
    463e:	0d ec       	xor	r12,	r13	
    4640:	8d 10       	swpb	r13		
    4642:	4c 4c       	mov.b	r12,	r12	
    4644:	8c 10       	swpb	r12		
    4646:	0e dc       	bis	r12,	r14	
    4648:	0f dd       	bis	r13,	r15	
    464a:	3b 41       	pop	r11		
    464c:	30 41       	ret			

0000464e <Msp430Adc12ImplP__TimerA__setMode>:
    464e:	3d 40 60 01 	mov	#352,	r13	;#0x0160
    4652:	2e 4d       	mov	@r13,	r14	
    4654:	0f 5f       	rla	r15		
    4656:	0f 5f       	rla	r15		
    4658:	0f 5f       	rla	r15		
    465a:	0f 5f       	rla	r15		
    465c:	3f f0 30 00 	and	#48,	r15	;#0x0030
    4660:	3e f0 cf ff 	and	#-49,	r14	;#0xffcf
    4664:	0f de       	bis	r14,	r15	
    4666:	8d 4f 00 00 	mov	r15,	0(r13)	;0x0000(r13)
    466a:	30 41       	ret			

0000466c <Msp430RefVoltGeneratorP__HplAdc12__getCtl0>:
    466c:	1f 42 a0 01 	mov	&0x01a0,r15	
    4670:	30 41       	ret			

00004672 <Msp430RefVoltGeneratorP__HplAdc12__setCtl0>:
    4672:	82 4f a0 01 	mov	r15,	&0x01a0	
    4676:	30 41       	ret			

00004678 <Msp430Adc12ImplP__HplAdc12__setMCtl>:
    4678:	4f 4f       	mov.b	r15,	r15	
    467a:	3f 50 80 00 	add	#128,	r15	;#0x0080
    467e:	4e 4e       	mov.b	r14,	r14	
    4680:	cf 4e 00 00 	mov.b	r14,	0(r15)	;0x0000(r15)
    4684:	30 41       	ret			

00004686 <Msp430Adc12ImplP__HplAdc12__setCtl1>:
    4686:	82 4f a2 01 	mov	r15,	&0x01a2	
    468a:	30 41       	ret			

0000468c <Msp430Adc12ImplP__HplAdc12__setCtl0>:
    468c:	82 4f a0 01 	mov	r15,	&0x01a0	
    4690:	30 41       	ret			

00004692 <Msp430Adc12ImplP__HplAdc12__getCtl0>:
    4692:	1f 42 a0 01 	mov	&0x01a0,r15	
    4696:	30 41       	ret			

00004698 <CtpForwardingEngineP__0__clearState>:
    4698:	c2 cf 44 11 	bic.b	r15,	&0x1144	
    469c:	30 41       	ret			

0000469e <CC2420SpiP__SpiByte__write>:
    469e:	c2 4f 77 00 	mov.b	r15,	&0x0077	
    46a2:	5f 42 02 00 	mov.b	&0x0002,r15	
    46a6:	3f f0 40 00 	and	#64,	r15	;#0x0040
    46aa:	fb 27       	jz	$-8      	;abs 0x46a2
    46ac:	f2 f0 bf ff 02 00 	and.b	#-65,	&0x0002	;#0xffbf
    46b2:	5f 42 76 00 	mov.b	&0x0076,r15	
    46b6:	30 41       	ret			

000046b8 <Msp430Adc12ImplP__HplAdc12__stopConversion>:
    46b8:	1f 42 a2 01 	mov	&0x01a2,r15	
    46bc:	b2 f0 f9 ff a2 01 	and	#-7,	&0x01a2	;#0xfff9
    46c2:	b2 f0 fc ff a0 01 	and	#-4,	&0x01a0	;#0xfffc
    46c8:	b2 f0 ef ff a0 01 	and	#-17,	&0x01a0	;#0xffef
    46ce:	1e 42 a2 01 	mov	&0x01a2,r14	
    46d2:	3f f0 06 00 	and	#6,	r15	;#0x0006
    46d6:	0f de       	bis	r14,	r15	
    46d8:	82 4f a2 01 	mov	r15,	&0x01a2	
    46dc:	30 41       	ret			

000046de <OneWireMasterP__BusyWait__wait>:
    46de:	1e 42 70 01 	mov	&0x0170,r14	
    46e2:	3f 90 01 80 	cmp	#-32767,r15	;#0x8001
    46e6:	0a 28       	jnc	$+22     	;abs 0x46fc
    46e8:	3f 50 00 80 	add	#-32768,r15	;#0x8000
    46ec:	1d 42 70 01 	mov	&0x0170,r13	
    46f0:	0d 8e       	sub	r14,	r13	
    46f2:	0f 9d       	cmp	r13,	r15	
    46f4:	fb 2f       	jc	$-8      	;abs 0x46ec
    46f6:	0e 5f       	add	r15,	r14	
    46f8:	3f 40 00 80 	mov	#-32768,r15	;#0x8000
    46fc:	1d 42 70 01 	mov	&0x0170,r13	
    4700:	0d 8e       	sub	r14,	r13	
    4702:	0f 9d       	cmp	r13,	r15	
    4704:	fb 2f       	jc	$-8      	;abs 0x46fc
    4706:	30 41       	ret			

00004708 <OneWireMasterP__Pin__makeInput>:
    4708:	f2 f0 ef ff 2a 00 	and.b	#-17,	&0x002a	;#0xffef
    470e:	30 41       	ret			

00004710 <OneWireMasterP__Pin__makeOutput>:
    4710:	f2 d0 10 00 2a 00 	bis.b	#16,	&0x002a	;#0x0010
    4716:	30 41       	ret			

00004718 <Msp430Adc12ImplP__HplAdc12__getMCtl>:
    4718:	4f 4f       	mov.b	r15,	r15	
    471a:	3f 50 80 00 	add	#128,	r15	;#0x0080
    471e:	6f 4f       	mov.b	@r15,	r15	
    4720:	30 41       	ret			

00004722 <Msp430TimerP__1__Timer__get>:
    4722:	1f 42 90 01 	mov	&0x0190,r15	
    4726:	01 3c       	jmp	$+4      	;abs 0x472a
    4728:	0f 4e       	mov	r14,	r15	
    472a:	1e 42 90 01 	mov	&0x0190,r14	
    472e:	0f 9e       	cmp	r14,	r15	
    4730:	fb 23       	jnz	$-8      	;abs 0x4728
    4732:	30 41       	ret			

00004734 <GpioCaptureC__0__enableCapture>:
    4734:	b2 f0 ef ff 84 01 	and	#-17,	&0x0184	;#0xffef
    473a:	e2 d3 1f 00 	bis.b	#2,	&0x001f	;r3 As==10
    473e:	b2 f0 fe ff 84 01 	and	#-2,	&0x0184	;#0xfffe
    4744:	b2 f0 fd ff 84 01 	and	#-3,	&0x0184	;#0xfffd
    474a:	4f 4f       	mov.b	r15,	r15	
    474c:	8f 10       	swpb	r15		
    474e:	7e 40 06 00 	mov.b	#6,	r14	;#0x0006
    4752:	0f 5f       	rla	r15		
    4754:	7e 53       	add.b	#-1,	r14	;r3 As==11
    4756:	fd 23       	jnz	$-4      	;abs 0x4752
    4758:	3f d0 00 01 	bis	#256,	r15	;#0x0100
    475c:	82 4f 84 01 	mov	r15,	&0x0184	
    4760:	b2 d0 10 00 84 01 	bis	#16,	&0x0184	;#0x0010
    4766:	4f 43       	clr.b	r15		
    4768:	30 41       	ret			

0000476a <MotePlatformC__TOSH_FLASH_M25P_DP_bit>:
    476a:	4f 93       	tst.b	r15		
    476c:	04 24       	jz	$+10     	;abs 0x4776
    476e:	5f 42 19 00 	mov.b	&0x0019,r15	
    4772:	6f d3       	bis.b	#2,	r15	;r3 As==10
    4774:	04 3c       	jmp	$+10     	;abs 0x477e
    4776:	5f 42 19 00 	mov.b	&0x0019,r15	
    477a:	7f f0 fd ff 	and.b	#-3,	r15	;#0xfffd
    477e:	c2 4f 19 00 	mov.b	r15,	&0x0019	
    4782:	f2 d2 19 00 	bis.b	#8,	&0x0019	;r2 As==11
    4786:	f2 f0 f7 ff 19 00 	and.b	#-9,	&0x0019	;#0xfff7
    478c:	30 41       	ret			

0000478e <LinkEstimatorP__findIdx>:
    478e:	0d 4f       	mov	r15,	r13	
    4790:	3e 40 4b 13 	mov	#4939,	r14	;#0x134b
    4794:	4f 43       	clr.b	r15		
    4796:	6c 4e       	mov.b	@r14,	r12	
    4798:	1c f3       	and	#1,	r12	;r3 As==01
    479a:	03 24       	jz	$+8      	;abs 0x47a2
    479c:	8e 9d fb ff 	cmp	r13,	-5(r14)	;0xfffb(r14)
    47a0:	07 24       	jz	$+16     	;abs 0x47b0
    47a2:	5f 53       	inc.b	r15		
    47a4:	3e 50 0e 00 	add	#14,	r14	;#0x000e
    47a8:	7f 90 0a 00 	cmp.b	#10,	r15	;#0x000a
    47ac:	f4 23       	jnz	$-22     	;abs 0x4796
    47ae:	7f 43       	mov.b	#-1,	r15	;r3 As==11
    47b0:	30 41       	ret			

000047b2 <CtpRoutingEngineP__0__LinkEstimator__getLinkQuality>:
    47b2:	b0 12 8e 47 	call	#0x478e	
    47b6:	7f 93       	cmp.b	#-1,	r15	;r3 As==11
    47b8:	10 24       	jz	$+34     	;abs 0x47da
    47ba:	4f 4f       	mov.b	r15,	r15	
    47bc:	0f 5f       	rla	r15		
    47be:	0e 4f       	mov	r15,	r14	
    47c0:	0e 5e       	rla	r14		
    47c2:	0e 5e       	rla	r14		
    47c4:	0e 5e       	rla	r14		
    47c6:	0e 8f       	sub	r15,	r14	
    47c8:	5f 4e 4b 13 	mov.b	4939(r14),r15	;0x134b(r14)
    47cc:	2f f3       	and	#2,	r15	;r3 As==10
    47ce:	08 24       	jz	$+18     	;abs 0x47e0
    47d0:	3e 50 46 13 	add	#4934,	r14	;#0x1346
    47d4:	1f 4e 0a 00 	mov	10(r14),r15	;0x000a(r14)
    47d8:	30 41       	ret			
    47da:	3f 40 ff 00 	mov	#255,	r15	;#0x00ff
    47de:	30 41       	ret			
    47e0:	3f 40 ff 00 	mov	#255,	r15	;#0x00ff
    47e4:	30 41       	ret			

000047e6 <CC2420PacketP__getNetwork>:
    47e6:	5c 4f 02 00 	mov.b	2(r15),	r12	;0x0002(r15)
    47ea:	8c 10       	swpb	r12		
    47ec:	5e 4f 01 00 	mov.b	1(r15),	r14	;0x0001(r15)
    47f0:	0c de       	bis	r14,	r12	
    47f2:	0e 4c       	mov	r12,	r14	
    47f4:	8e 10       	swpb	r14		
    47f6:	4e 4e       	mov.b	r14,	r14	
    47f8:	12 c3       	clrc			
    47fa:	0e 10       	rrc	r14		
    47fc:	12 c3       	clrc			
    47fe:	0e 10       	rrc	r14		
    4800:	3e f0 03 00 	and	#3,	r14	;#0x0003
    4804:	5d 4e fc a0 	mov.b	-24324(r14),r13	;0xa0fc(r14)
    4808:	8d 11       	sxt	r13		
    480a:	0e 4c       	mov	r12,	r14	
    480c:	8e 10       	swpb	r14		
    480e:	4e 4e       	mov.b	r14,	r14	
    4810:	7c 40 06 00 	mov.b	#6,	r12	;#0x0006
    4814:	12 c3       	clrc			
    4816:	0e 10       	rrc	r14		
    4818:	7c 53       	add.b	#-1,	r12	;r3 As==11
    481a:	fc 23       	jnz	$-6      	;abs 0x4814
    481c:	5e 4e fc a0 	mov.b	-24324(r14),r14	;0xa0fc(r14)
    4820:	8e 11       	sxt	r14		
    4822:	0e 5d       	add	r13,	r14	
    4824:	3e 50 06 00 	add	#6,	r14	;#0x0006
    4828:	0f 5e       	add	r14,	r15	
    482a:	30 41       	ret			

0000482c <LruCtpMsgCacheP__0__lookup>:
    482c:	0b 12       	push	r11		
    482e:	0a 12       	push	r10		
    4830:	09 12       	push	r9		
    4832:	59 42 bc 11 	mov.b	&0x11bc,r9	
    4836:	5a 42 02 13 	mov.b	&0x1302,r10	
    483a:	4d 43       	clr.b	r13		
    483c:	20 3c       	jmp	$+66     	;abs 0x487e
    483e:	4e 4d       	mov.b	r13,	r14	
    4840:	4e 5a       	add.b	r10,	r14	
    4842:	3e f0 03 00 	and	#3,	r14	;#0x0003
    4846:	5b 4f 10 00 	mov.b	16(r15),r11	;0x0010(r15)
    484a:	8b 10       	swpb	r11		
    484c:	5c 4f 11 00 	mov.b	17(r15),r12	;0x0011(r15)
    4850:	0b dc       	bis	r12,	r11	
    4852:	0c 4e       	mov	r14,	r12	
    4854:	0c 5c       	rla	r12		
    4856:	0e 5c       	add	r12,	r14	
    4858:	0e 5e       	rla	r14		
    485a:	1b 9e 10 12 	cmp	4624(r14),r11	;0x1210(r14)
    485e:	0e 20       	jnz	$+30     	;abs 0x487c
    4860:	0c 4e       	mov	r14,	r12	
    4862:	3c 50 12 12 	add	#4626,	r12	;#0x1212
    4866:	ef 9c 12 00 	cmp.b	@r12,	18(r15)	;0x0012(r15)
    486a:	08 20       	jnz	$+18     	;abs 0x487c
    486c:	df 9e 14 12 0d 00 	cmp.b	4628(r14),13(r15)	;0x1214(r14), 0x000d(r15)
    4872:	04 20       	jnz	$+10     	;abs 0x487c
    4874:	df 9c 01 00 13 00 	cmp.b	1(r12),	19(r15)	;0x0001(r12), 0x0013(r15)
    487a:	03 24       	jz	$+8      	;abs 0x4882
    487c:	5d 53       	inc.b	r13		
    487e:	4d 99       	cmp.b	r9,	r13	
    4880:	de 23       	jnz	$-66     	;abs 0x483e
    4882:	4f 4d       	mov.b	r13,	r15	
    4884:	39 41       	pop	r9		
    4886:	3a 41       	pop	r10		
    4888:	3b 41       	pop	r11		
    488a:	30 41       	ret			

0000488c <LinkEstimatorP__updateDEETX>:
    488c:	0b 12       	push	r11		
    488e:	0b 4f       	mov	r15,	r11	
    4890:	5e 4f 0c 00 	mov.b	12(r15),r14	;0x000c(r15)
    4894:	4e 93       	tst.b	r14		
    4896:	09 20       	jnz	$+20     	;abs 0x48aa
    4898:	5e 4f 0d 00 	mov.b	13(r15),r14	;0x000d(r15)
    489c:	3e 53       	add	#-1,	r14	;r3 As==11
    489e:	0e 5e       	rla	r14		
    48a0:	0f 4e       	mov	r14,	r15	
    48a2:	0f 5f       	rla	r15		
    48a4:	0f 5f       	rla	r15		
    48a6:	0f 5e       	add	r14,	r15	
    48a8:	10 3c       	jmp	$+34     	;abs 0x48ca
    48aa:	5d 4f 0d 00 	mov.b	13(r15),r13	;0x000d(r15)
    48ae:	0d 5d       	rla	r13		
    48b0:	0f 4d       	mov	r13,	r15	
    48b2:	0f 5f       	rla	r15		
    48b4:	0f 5f       	rla	r15		
    48b6:	4e 4e       	mov.b	r14,	r14	
    48b8:	0f 5d       	add	r13,	r15	
    48ba:	b0 12 0e 9e 	call	#0x9e0e	
    48be:	3f 50 f6 ff 	add	#-10,	r15	;#0xfff6
    48c2:	cb 43 0c 00 	mov.b	#0,	12(r11)	;r3 As==00, 0x000c(r11)
    48c6:	cb 43 0d 00 	mov.b	#0,	13(r11)	;r3 As==00, 0x000d(r11)
    48ca:	1d 4b 0a 00 	mov	10(r11),r13	;0x000a(r11)
    48ce:	0e 4d       	mov	r13,	r14	
    48d0:	0e 5e       	rla	r14		
    48d2:	0e 5e       	rla	r14		
    48d4:	0e 5e       	rla	r14		
    48d6:	0d 5e       	add	r14,	r13	
    48d8:	3d 50 05 00 	add	#5,	r13	;#0x0005
    48dc:	3e 40 0a 00 	mov	#10,	r14	;#0x000a
    48e0:	0f 5d       	add	r13,	r15	
    48e2:	b0 12 ec 9d 	call	#0x9dec	
    48e6:	8b 4f 0a 00 	mov	r15,	10(r11)	;0x000a(r11)
    48ea:	3b 41       	pop	r11		
    48ec:	30 41       	ret			

000048ee <CC2420ReceiveP__reset_state>:
    48ee:	f2 40 80 ff da 11 	mov.b	#-128,	&0x11da	;#0xff80
    48f4:	c2 43 8e 12 	mov.b	#0,	&0x128e	;r3 As==00
    48f8:	c2 43 1a 18 	mov.b	#0,	&0x181a	;r3 As==00
    48fc:	c2 43 10 18 	mov.b	#0,	&0x1810	;r3 As==00
    4900:	c2 43 2b 12 	mov.b	#0,	&0x122b	;r3 As==00
    4904:	30 41       	ret			

00004906 <LocalIeeeEui64P__LocalIeeeEui64__getId>:
    4906:	0b 12       	push	r11		
    4908:	0a 12       	push	r10		
    490a:	09 12       	push	r9		
    490c:	08 12       	push	r8		
    490e:	c2 93 58 11 	tst.b	&0x1158	
    4912:	b0 20       	jnz	$+354    	;abs 0x4a74
    4914:	c2 93 56 11 	tst.b	&0x1156	
    4918:	82 20       	jnz	$+262    	;abs 0x4a1e
    491a:	b0 12 08 47 	call	#0x4708	
    491e:	f2 f0 ef ff 29 00 	and.b	#-17,	&0x0029	;#0xffef
    4924:	b0 12 10 47 	call	#0x4710	
    4928:	3f 40 30 02 	mov	#560,	r15	;#0x0230
    492c:	b0 12 de 46 	call	#0x46de	
    4930:	b0 12 08 47 	call	#0x4708	
    4934:	3f 40 3c 00 	mov	#60,	r15	;#0x003c
    4938:	b0 12 de 46 	call	#0x46de	
    493c:	0b 43       	clr	r11		
    493e:	f2 b0 10 00 28 00 	bit.b	#16,	&0x0028	;#0x0010
    4944:	09 24       	jz	$+20     	;abs 0x4958
    4946:	3b 50 05 00 	add	#5,	r11	;#0x0005
    494a:	3f 40 05 00 	mov	#5,	r15	;#0x0005
    494e:	b0 12 de 46 	call	#0x46de	
    4952:	3b 90 f0 00 	cmp	#240,	r11	;#0x00f0
    4956:	f3 23       	jnz	$-24     	;abs 0x493e
    4958:	3f 40 a4 01 	mov	#420,	r15	;#0x01a4
    495c:	b0 12 de 46 	call	#0x46de	
    4960:	3b 90 f0 00 	cmp	#240,	r11	;#0x00f0
    4964:	5e 2c       	jc	$+190    	;abs 0x4a22
    4966:	7a 42       	mov.b	#8,	r10	;r2 As==11
    4968:	7b 40 33 00 	mov.b	#51,	r11	;#0x0033
    496c:	1b b3       	bit	#1,	r11	;r3 As==01
    496e:	0b 24       	jz	$+24     	;abs 0x4986
    4970:	b0 12 10 47 	call	#0x4710	
    4974:	3f 40 05 00 	mov	#5,	r15	;#0x0005
    4978:	b0 12 de 46 	call	#0x46de	
    497c:	b0 12 08 47 	call	#0x4708	
    4980:	3f 40 41 00 	mov	#65,	r15	;#0x0041
    4984:	0a 3c       	jmp	$+22     	;abs 0x499a
    4986:	b0 12 10 47 	call	#0x4710	
    498a:	3f 40 3c 00 	mov	#60,	r15	;#0x003c
    498e:	b0 12 de 46 	call	#0x46de	
    4992:	b0 12 08 47 	call	#0x4708	
    4996:	3f 40 05 00 	mov	#5,	r15	;#0x0005
    499a:	b0 12 de 46 	call	#0x46de	
    499e:	12 c3       	clrc			
    49a0:	4b 10       	rrc.b	r11		
    49a2:	7a 53       	add.b	#-1,	r10	;r3 As==11
    49a4:	e3 23       	jnz	$-56     	;abs 0x496c
    49a6:	3a 40 06 15 	mov	#5382,	r10	;#0x1506
    49aa:	79 42       	mov.b	#8,	r9	;r2 As==11
    49ac:	4b 43       	clr.b	r11		
    49ae:	12 c3       	clrc			
    49b0:	4b 10       	rrc.b	r11		
    49b2:	b0 12 10 47 	call	#0x4710	
    49b6:	3f 40 05 00 	mov	#5,	r15	;#0x0005
    49ba:	b0 12 de 46 	call	#0x46de	
    49be:	b0 12 08 47 	call	#0x4708	
    49c2:	3f 40 05 00 	mov	#5,	r15	;#0x0005
    49c6:	b0 12 de 46 	call	#0x46de	
    49ca:	58 42 28 00 	mov.b	&0x0028,r8	
    49ce:	3f 40 41 00 	mov	#65,	r15	;#0x0041
    49d2:	b0 12 de 46 	call	#0x46de	
    49d6:	78 b0 10 00 	bit.b	#16,	r8	;#0x0010
    49da:	02 24       	jz	$+6      	;abs 0x49e0
    49dc:	7b d0 80 ff 	bis.b	#-128,	r11	;#0xff80
    49e0:	79 53       	add.b	#-1,	r9	;r3 As==11
    49e2:	e5 23       	jnz	$-52     	;abs 0x49ae
    49e4:	ca 4b 00 00 	mov.b	r11,	0(r10)	;0x0000(r10)
    49e8:	1a 53       	inc	r10		
    49ea:	3a 90 0e 15 	cmp	#5390,	r10	;#0x150e
    49ee:	dd 23       	jnz	$-68     	;abs 0x49aa
    49f0:	0e 43       	clr	r14		
    49f2:	4f 43       	clr.b	r15		
    49f4:	5f ee 06 15 	xor.b	5382(r14),r15	;0x1506(r14)
    49f8:	7d 42       	mov.b	#8,	r13	;r2 As==11
    49fa:	0c 4f       	mov	r15,	r12	
    49fc:	1c f3       	and	#1,	r12	;r3 As==01
    49fe:	12 c3       	clrc			
    4a00:	4f 10       	rrc.b	r15		
    4a02:	0c 93       	tst	r12		
    4a04:	02 24       	jz	$+6      	;abs 0x4a0a
    4a06:	7f e0 8c ff 	xor.b	#-116,	r15	;#0xff8c
    4a0a:	7d 53       	add.b	#-1,	r13	;r3 As==11
    4a0c:	f6 23       	jnz	$-18     	;abs 0x49fa
    4a0e:	1e 53       	inc	r14		
    4a10:	3e 92       	cmp	#8,	r14	;r2 As==11
    4a12:	f0 23       	jnz	$-30     	;abs 0x49f4
    4a14:	4f 93       	tst.b	r15		
    4a16:	07 20       	jnz	$+16     	;abs 0x4a26
    4a18:	d2 43 56 11 	mov.b	#1,	&0x1156	;r3 As==01
    4a1c:	06 3c       	jmp	$+14     	;abs 0x4a2a
    4a1e:	4f 43       	clr.b	r15		
    4a20:	04 3c       	jmp	$+10     	;abs 0x4a2a
    4a22:	6f 42       	mov.b	#4,	r15	;r2 As==10
    4a24:	02 3c       	jmp	$+6      	;abs 0x4a2a
    4a26:	7f 40 06 00 	mov.b	#6,	r15	;#0x0006
    4a2a:	c2 93 56 11 	tst.b	&0x1156	
    4a2e:	07 24       	jz	$+16     	;abs 0x4a3e
    4a30:	5e 42 07 15 	mov.b	&0x1507,r14	
    4a34:	5d 42 08 15 	mov.b	&0x1508,r13	
    4a38:	5c 42 09 15 	mov.b	&0x1509,r12	
    4a3c:	03 3c       	jmp	$+8      	;abs 0x4a44
    4a3e:	4c 43       	clr.b	r12		
    4a40:	4d 43       	clr.b	r13		
    4a42:	4e 43       	clr.b	r14		
    4a44:	4f 93       	tst.b	r15		
    4a46:	16 20       	jnz	$+46     	;abs 0x4a74
    4a48:	c2 43 5a 11 	mov.b	#0,	&0x115a	;r3 As==00
    4a4c:	f2 40 12 00 5b 11 	mov.b	#18,	&0x115b	;#0x0012
    4a52:	f2 40 6d 00 5c 11 	mov.b	#109,	&0x115c	;#0x006d
    4a58:	f2 40 45 00 5d 11 	mov.b	#69,	&0x115d	;#0x0045
    4a5e:	f2 40 50 00 5e 11 	mov.b	#80,	&0x115e	;#0x0050
    4a64:	c2 4c 5f 11 	mov.b	r12,	&0x115f	
    4a68:	c2 4d 60 11 	mov.b	r13,	&0x1160	
    4a6c:	c2 4e 61 11 	mov.b	r14,	&0x1161	
    4a70:	d2 43 58 11 	mov.b	#1,	&0x1158	;r3 As==01
    4a74:	1c 42 5a 11 	mov	&0x115a,r12	
    4a78:	1d 42 5c 11 	mov	&0x115c,r13	
    4a7c:	1e 42 5e 11 	mov	&0x115e,r14	
    4a80:	1f 42 60 11 	mov	&0x1160,r15	
    4a84:	38 41       	pop	r8		
    4a86:	39 41       	pop	r9		
    4a88:	3a 41       	pop	r10		
    4a8a:	3b 41       	pop	r11		
    4a8c:	30 41       	ret			

00004a8e <Msp430Adc12ImplP__resetAdcPin>:
    4a8e:	7f 92       	cmp.b	#8,	r15	;r2 As==11
    4a90:	2c 2c       	jc	$+90     	;abs 0x4aea
    4a92:	4f 4f       	mov.b	r15,	r15	
    4a94:	0f 5f       	rla	r15		
    4a96:	10 4f 0e a0 	br	-24562(r15)	;0xa00e(r15)
    4a9a:	5f 42 37 00 	mov.b	&0x0037,r15	
    4a9e:	7f f0 fe ff 	and.b	#-2,	r15	;#0xfffe
    4aa2:	1d 3c       	jmp	$+60     	;abs 0x4ade
    4aa4:	5f 42 37 00 	mov.b	&0x0037,r15	
    4aa8:	7f f0 fd ff 	and.b	#-3,	r15	;#0xfffd
    4aac:	18 3c       	jmp	$+50     	;abs 0x4ade
    4aae:	5f 42 37 00 	mov.b	&0x0037,r15	
    4ab2:	7f f0 fb ff 	and.b	#-5,	r15	;#0xfffb
    4ab6:	13 3c       	jmp	$+40     	;abs 0x4ade
    4ab8:	5f 42 37 00 	mov.b	&0x0037,r15	
    4abc:	7f f0 f7 ff 	and.b	#-9,	r15	;#0xfff7
    4ac0:	0e 3c       	jmp	$+30     	;abs 0x4ade
    4ac2:	5f 42 37 00 	mov.b	&0x0037,r15	
    4ac6:	7f f0 ef ff 	and.b	#-17,	r15	;#0xffef
    4aca:	09 3c       	jmp	$+20     	;abs 0x4ade
    4acc:	5f 42 37 00 	mov.b	&0x0037,r15	
    4ad0:	7f f0 df ff 	and.b	#-33,	r15	;#0xffdf
    4ad4:	04 3c       	jmp	$+10     	;abs 0x4ade
    4ad6:	5f 42 37 00 	mov.b	&0x0037,r15	
    4ada:	7f f0 bf ff 	and.b	#-65,	r15	;#0xffbf
    4ade:	c2 4f 37 00 	mov.b	r15,	&0x0037	
    4ae2:	30 41       	ret			
    4ae4:	f2 f0 7f 00 37 00 	and.b	#127,	&0x0037	;#0x007f
    4aea:	30 41       	ret			

00004aec <Msp430Adc12ImplP__stopConversion>:
    4aec:	0b 12       	push	r11		
    4aee:	5f 42 38 13 	mov.b	&0x1338,r15	
    4af2:	3f f0 40 00 	and	#64,	r15	;#0x0040
    4af6:	03 24       	jz	$+8      	;abs 0x4afe
    4af8:	0f 43       	clr	r15		
    4afa:	b0 12 4e 46 	call	#0x464e	
    4afe:	4f 43       	clr.b	r15		
    4b00:	b0 12 18 47 	call	#0x4718	
    4b04:	7f f0 0f 00 	and.b	#15,	r15	;#0x000f
    4b08:	b0 12 8e 4a 	call	#0x4a8e	
    4b0c:	5f 42 38 13 	mov.b	&0x1338,r15	
    4b10:	3f f0 10 00 	and	#16,	r15	;#0x0010
    4b14:	0a 20       	jnz	$+22     	;abs 0x4b2a
    4b16:	0d 3c       	jmp	$+28     	;abs 0x4b32
    4b18:	4f 4b       	mov.b	r11,	r15	
    4b1a:	b0 12 18 47 	call	#0x4718	
    4b1e:	7f f0 0f 00 	and.b	#15,	r15	;#0x000f
    4b22:	b0 12 8e 4a 	call	#0x4a8e	
    4b26:	5b 53       	inc.b	r11		
    4b28:	01 3c       	jmp	$+4      	;abs 0x4b2c
    4b2a:	5b 43       	mov.b	#1,	r11	;r3 As==01
    4b2c:	5b 92 2c 12 	cmp.b	&0x122c,r11	
    4b30:	f3 2b       	jnc	$-24     	;abs 0x4b18
    4b32:	b0 12 b8 46 	call	#0x46b8	
    4b36:	82 43 a8 01 	mov	#0,	&0x01a8	;r3 As==00
    4b3a:	82 43 a4 01 	mov	#0,	&0x01a4	;r3 As==00
    4b3e:	f2 f0 df ff 38 13 	and.b	#-33,	&0x1338	;#0xffdf
    4b44:	3b 41       	pop	r11		
    4b46:	30 41       	ret			

00004b48 <LruCtpMsgCacheP__0__Cache__insert>:
    4b48:	0b 12       	push	r11		
    4b4a:	0a 12       	push	r10		
    4b4c:	0b 4f       	mov	r15,	r11	
    4b4e:	e2 92 bc 11 	cmp.b	#4,	&0x11bc	;r2 As==10
    4b52:	2e 20       	jnz	$+94     	;abs 0x4bb0
    4b54:	b0 12 2c 48 	call	#0x482c	
    4b58:	4a 4f       	mov.b	r15,	r10	
    4b5a:	7a f0 03 00 	and.b	#3,	r10	;#0x0003
    4b5e:	08 20       	jnz	$+18     	;abs 0x4b70
    4b60:	5f 42 02 13 	mov.b	&0x1302,r15	
    4b64:	1f 53       	inc	r15		
    4b66:	7f f0 03 00 	and.b	#3,	r15	;#0x0003
    4b6a:	c2 4f 02 13 	mov.b	r15,	&0x1302	
    4b6e:	1d 3c       	jmp	$+60     	;abs 0x4baa
    4b70:	4e 4a       	mov.b	r10,	r14	
    4b72:	5f 42 02 13 	mov.b	&0x1302,r15	
    4b76:	0e 5f       	add	r15,	r14	
    4b78:	0f 4e       	mov	r14,	r15	
    4b7a:	3f f0 03 00 	and	#3,	r15	;#0x0003
    4b7e:	0d 4f       	mov	r15,	r13	
    4b80:	0d 5d       	rla	r13		
    4b82:	0f 5d       	add	r13,	r15	
    4b84:	0f 5f       	rla	r15		
    4b86:	1e 53       	inc	r14		
    4b88:	3e f0 03 00 	and	#3,	r14	;#0x0003
    4b8c:	0d 4e       	mov	r14,	r13	
    4b8e:	0d 5d       	rla	r13		
    4b90:	0e 5d       	add	r13,	r14	
    4b92:	0e 5e       	rla	r14		
    4b94:	3d 40 06 00 	mov	#6,	r13	;#0x0006
    4b98:	3e 50 10 12 	add	#4624,	r14	;#0x1210
    4b9c:	3f 50 10 12 	add	#4624,	r15	;#0x1210
    4ba0:	b0 12 a8 9e 	call	#0x9ea8	
    4ba4:	5a 53       	inc.b	r10		
    4ba6:	6a 92       	cmp.b	#4,	r10	;r2 As==10
    4ba8:	e3 2b       	jnc	$-56     	;abs 0x4b70
    4baa:	f2 40 03 00 bc 11 	mov.b	#3,	&0x11bc	;#0x0003
    4bb0:	5c 42 bc 11 	mov.b	&0x11bc,r12	
    4bb4:	5e 42 02 13 	mov.b	&0x1302,r14	
    4bb8:	0e 5c       	add	r12,	r14	
    4bba:	3e f0 03 00 	and	#3,	r14	;#0x0003
    4bbe:	0f 4e       	mov	r14,	r15	
    4bc0:	0f 5f       	rla	r15		
    4bc2:	0e 5f       	add	r15,	r14	
    4bc4:	0e 5e       	rla	r14		
    4bc6:	5f 4b 10 00 	mov.b	16(r11),r15	;0x0010(r11)
    4bca:	8f 10       	swpb	r15		
    4bcc:	5d 4b 11 00 	mov.b	17(r11),r13	;0x0011(r11)
    4bd0:	0f dd       	bis	r13,	r15	
    4bd2:	8e 4f 10 12 	mov	r15,	4624(r14);0x1210(r14)
    4bd6:	0f 4e       	mov	r14,	r15	
    4bd8:	3f 50 12 12 	add	#4626,	r15	;#0x1212
    4bdc:	df 4b 12 00 00 00 	mov.b	18(r11),0(r15)	;0x0012(r11), 0x0000(r15)
    4be2:	de 4b 0d 00 14 12 	mov.b	13(r11),4628(r14);0x000d(r11), 0x1214(r14)
    4be8:	df 4b 13 00 01 00 	mov.b	19(r11),1(r15)	;0x0013(r11), 0x0001(r15)
    4bee:	5c 53       	inc.b	r12		
    4bf0:	c2 4c bc 11 	mov.b	r12,	&0x11bc	
    4bf4:	3a 41       	pop	r10		
    4bf6:	3b 41       	pop	r11		
    4bf8:	30 41       	ret			

00004bfa <HplMsp430Usart0P__Usart__resetUsart>:
    4bfa:	4f 93       	tst.b	r15		
    4bfc:	03 24       	jz	$+8      	;abs 0x4c04
    4bfe:	d2 43 70 00 	mov.b	#1,	&0x0070	;r3 As==01
    4c02:	30 41       	ret			
    4c04:	f2 f0 fe ff 70 00 	and.b	#-2,	&0x0070	;#0xfffe
    4c0a:	30 41       	ret			

00004c0c <SchedulerBasicP__popTask.part.172>:
    4c0c:	5f 42 11 18 	mov.b	&0x1811,r15	
    4c10:	4e 4f       	mov.b	r15,	r14	
    4c12:	3e 50 e4 11 	add	#4580,	r14	;#0x11e4
    4c16:	6d 4e       	mov.b	@r14,	r13	
    4c18:	c2 4d 11 18 	mov.b	r13,	&0x1811	
    4c1c:	7d 93       	cmp.b	#-1,	r13	;r3 As==11
    4c1e:	02 20       	jnz	$+6      	;abs 0x4c24
    4c20:	f2 43 39 18 	mov.b	#-1,	&0x1839	;r3 As==11
    4c24:	fe 43 00 00 	mov.b	#-1,	0(r14)	;r3 As==11, 0x0000(r14)
    4c28:	30 41       	ret			

00004c2a <Msp430TimerP__0__Event__fired>:
    4c2a:	5f 93       	cmp.b	#1,	r15	;r3 As==01
    4c2c:	0c 24       	jz	$+26     	;abs 0x4c46
    4c2e:	03 28       	jnc	$+8      	;abs 0x4c36
    4c30:	6f 93       	cmp.b	#2,	r15	;r3 As==10
    4c32:	18 20       	jnz	$+50     	;abs 0x4c64
    4c34:	10 3c       	jmp	$+34     	;abs 0x4c56
    4c36:	1f 42 62 01 	mov	&0x0162,r15	
    4c3a:	8f 10       	swpb	r15		
    4c3c:	5f f3       	and.b	#1,	r15	;r3 As==01
    4c3e:	12 24       	jz	$+38     	;abs 0x4c64
    4c40:	1f 42 72 01 	mov	&0x0172,r15	
    4c44:	30 41       	ret			
    4c46:	1f 42 64 01 	mov	&0x0164,r15	
    4c4a:	8f 10       	swpb	r15		
    4c4c:	5f f3       	and.b	#1,	r15	;r3 As==01
    4c4e:	0a 24       	jz	$+22     	;abs 0x4c64
    4c50:	1f 42 74 01 	mov	&0x0174,r15	
    4c54:	30 41       	ret			
    4c56:	1f 42 66 01 	mov	&0x0166,r15	
    4c5a:	8f 10       	swpb	r15		
    4c5c:	5f f3       	and.b	#1,	r15	;r3 As==01
    4c5e:	02 24       	jz	$+6      	;abs 0x4c64
    4c60:	1f 42 76 01 	mov	&0x0176,r15	
    4c64:	30 41       	ret			

00004c66 <ArbiterP__0__ResourceConfigure__unconfigure.part.193>:
    4c66:	5f 43       	mov.b	#1,	r15	;r3 As==01
    4c68:	b0 12 fa 4b 	call	#0x4bfa	
    4c6c:	f2 f0 bf ff 04 00 	and.b	#-65,	&0x0004	;#0xffbf
    4c72:	3f 40 1b 00 	mov	#27,	r15	;#0x001b
    4c76:	ff f0 fd ff 00 00 	and.b	#-3,	0(r15)	;#0xfffd, 0x0000(r15)
    4c7c:	ff f0 fb ff 00 00 	and.b	#-5,	0(r15)	;#0xfffb, 0x0000(r15)
    4c82:	ff f0 f7 ff 00 00 	and.b	#-9,	0(r15)	;#0xfff7, 0x0000(r15)
    4c88:	4f 43       	clr.b	r15		
    4c8a:	b0 12 fa 4b 	call	#0x4bfa	
    4c8e:	30 41       	ret			

00004c90 <CtpRoutingEngineP__0__CtpInfo__getEtx>:
    4c90:	0b 12       	push	r11		
    4c92:	0a 12       	push	r10		
    4c94:	0b 4f       	mov	r15,	r11	
    4c96:	0f 93       	tst	r15		
    4c98:	13 24       	jz	$+40     	;abs 0x4cc0
    4c9a:	1f 42 ae 17 	mov	&0x17ae,r15	
    4c9e:	3f 93       	cmp	#-1,	r15	;r3 As==11
    4ca0:	0f 24       	jz	$+32     	;abs 0x4cc0
    4ca2:	d2 93 c0 11 	cmp.b	#1,	&0x11c0	;r3 As==01
    4ca6:	03 20       	jnz	$+8      	;abs 0x4cae
    4ca8:	8b 43 00 00 	mov	#0,	0(r11)	;r3 As==00, 0x0000(r11)
    4cac:	07 3c       	jmp	$+16     	;abs 0x4cbc
    4cae:	1a 42 b0 17 	mov	&0x17b0,r10	
    4cb2:	b0 12 b2 47 	call	#0x47b2	
    4cb6:	0f 5a       	add	r10,	r15	
    4cb8:	8b 4f 00 00 	mov	r15,	0(r11)	;0x0000(r11)
    4cbc:	4f 43       	clr.b	r15		
    4cbe:	01 3c       	jmp	$+4      	;abs 0x4cc2
    4cc0:	5f 43       	mov.b	#1,	r15	;r3 As==01
    4cc2:	3a 41       	pop	r10		
    4cc4:	3b 41       	pop	r11		
    4cc6:	30 41       	ret			

00004cc8 <CtpForwardingEngineP__0__SendQueue__dequeue>:
    4cc8:	5d 42 42 11 	mov.b	&0x1142,r13	
    4ccc:	4f 4d       	mov.b	r13,	r15	
    4cce:	0f 5f       	rla	r15		
    4cd0:	1f 4f 90 17 	mov	6032(r15),r15	;0x1790(r15)
    4cd4:	5e 42 3e 11 	mov.b	&0x113e,r14	
    4cd8:	4e 93       	tst.b	r14		
    4cda:	0b 24       	jz	$+24     	;abs 0x4cf2
    4cdc:	5d 53       	inc.b	r13		
    4cde:	c2 4d 42 11 	mov.b	r13,	&0x1142	
    4ce2:	7d 90 0d 00 	cmp.b	#13,	r13	;#0x000d
    4ce6:	02 20       	jnz	$+6      	;abs 0x4cec
    4ce8:	c2 43 42 11 	mov.b	#0,	&0x1142	;r3 As==00
    4cec:	7e 53       	add.b	#-1,	r14	;r3 As==11
    4cee:	c2 4e 3e 11 	mov.b	r14,	&0x113e	
    4cf2:	30 41       	ret			

00004cf4 <CtpForwardingEngineP__0__MessagePool__put.part.203>:
    4cf4:	5d 42 ff 12 	mov.b	&0x12ff,r13	
    4cf8:	5e 42 da 12 	mov.b	&0x12da,r14	
    4cfc:	4c 4d       	mov.b	r13,	r12	
    4cfe:	0e 5c       	add	r12,	r14	
    4d00:	3e 90 0c 00 	cmp	#12,	r14	;#0x000c
    4d04:	02 28       	jnc	$+6      	;abs 0x4d0a
    4d06:	3e 50 f4 ff 	add	#-12,	r14	;#0xfff4
    4d0a:	0e 5e       	rla	r14		
    4d0c:	8e 4f da 14 	mov	r15,	5338(r14);0x14da(r14)
    4d10:	5d 53       	inc.b	r13		
    4d12:	c2 4d ff 12 	mov.b	r13,	&0x12ff	
    4d16:	4f 43       	clr.b	r15		
    4d18:	30 41       	ret			

00004d1a <CtpForwardingEngineP__0__QEntryPool__put.part.204>:
    4d1a:	5d 42 fe 12 	mov.b	&0x12fe,r13	
    4d1e:	5e 42 23 18 	mov.b	&0x1823,r14	
    4d22:	4c 4d       	mov.b	r13,	r12	
    4d24:	0e 5c       	add	r12,	r14	
    4d26:	3e 90 0c 00 	cmp	#12,	r14	;#0x000c
    4d2a:	02 28       	jnc	$+6      	;abs 0x4d30
    4d2c:	3e 50 f4 ff 	add	#-12,	r14	;#0xfff4
    4d30:	0e 5e       	rla	r14		
    4d32:	8e 4f 3c 18 	mov	r15,	6204(r14);0x183c(r14)
    4d36:	5d 53       	inc.b	r13		
    4d38:	c2 4d fe 12 	mov.b	r13,	&0x12fe	
    4d3c:	4f 43       	clr.b	r15		
    4d3e:	30 41       	ret			

00004d40 <CtpForwardingEngineP__0__SendQueue__enqueue.part.211>:
    4d40:	5d 42 40 11 	mov.b	&0x1140,r13	
    4d44:	4e 4d       	mov.b	r13,	r14	
    4d46:	0e 5e       	rla	r14		
    4d48:	8e 4f 90 17 	mov	r15,	6032(r14);0x1790(r14)
    4d4c:	4f 4d       	mov.b	r13,	r15	
    4d4e:	5f 53       	inc.b	r15		
    4d50:	c2 4f 40 11 	mov.b	r15,	&0x1140	
    4d54:	7f 90 0d 00 	cmp.b	#13,	r15	;#0x000d
    4d58:	02 20       	jnz	$+6      	;abs 0x4d5e
    4d5a:	c2 43 40 11 	mov.b	#0,	&0x1140	;r3 As==00
    4d5e:	d2 53 3e 11 	inc.b	&0x113e	
    4d62:	4f 43       	clr.b	r15		
    4d64:	30 41       	ret			

00004d66 <__nesc_atomic_start>:
    4d66:	0e 42       	mov	r2,	r14	
    4d68:	32 c2       	dint			
    4d6a:	03 43       	nop			
    4d6c:	03 43       	nop			
    4d6e:	3e f2       	and	#8,	r14	;r2 As==11
    4d70:	5f 43       	mov.b	#1,	r15	;r3 As==01
    4d72:	01 20       	jnz	$+4      	;abs 0x4d76
    4d74:	4f 43       	clr.b	r15		
    4d76:	30 41       	ret			

00004d78 <__nesc_atomic_end>:
    4d78:	4f 93       	tst.b	r15		
    4d7a:	01 24       	jz	$+4      	;abs 0x4d7e
    4d7c:	32 d2       	eint			
    4d7e:	30 41       	ret			

00004d80 <SchedulerBasicP__TaskBasic__postTask>:
    4d80:	0b 12       	push	r11		
    4d82:	4b 4f       	mov.b	r15,	r11	
    4d84:	b0 12 66 4d 	call	#0x4d66	
    4d88:	4e 4b       	mov.b	r11,	r14	
    4d8a:	fe 93 e4 11 	cmp.b	#-1,	4580(r14);r3 As==11, 0x11e4(r14)
    4d8e:	06 20       	jnz	$+14     	;abs 0x4d9c
    4d90:	1e 43       	mov	#1,	r14	;r3 As==01
    4d92:	c2 9b 39 18 	cmp.b	r11,	&0x1839	
    4d96:	03 24       	jz	$+8      	;abs 0x4d9e
    4d98:	0e 43       	clr	r14		
    4d9a:	01 3c       	jmp	$+4      	;abs 0x4d9e
    4d9c:	1e 43       	mov	#1,	r14	;r3 As==01
    4d9e:	0e 93       	tst	r14		
    4da0:	0e 20       	jnz	$+30     	;abs 0x4dbe
    4da2:	f2 93 11 18 	cmp.b	#-1,	&0x1811	;r3 As==11
    4da6:	03 20       	jnz	$+8      	;abs 0x4dae
    4da8:	c2 4b 11 18 	mov.b	r11,	&0x1811	
    4dac:	04 3c       	jmp	$+10     	;abs 0x4db6
    4dae:	5e 42 39 18 	mov.b	&0x1839,r14	
    4db2:	ce 4b e4 11 	mov.b	r11,	4580(r14);0x11e4(r14)
    4db6:	c2 4b 39 18 	mov.b	r11,	&0x1839	
    4dba:	4b 43       	clr.b	r11		
    4dbc:	02 3c       	jmp	$+6      	;abs 0x4dc2
    4dbe:	7b 40 05 00 	mov.b	#5,	r11	;#0x0005
    4dc2:	b0 12 78 4d 	call	#0x4d78	
    4dc6:	4f 4b       	mov.b	r11,	r15	
    4dc8:	3b 41       	pop	r11		
    4dca:	30 41       	ret			

00004dcc <ArbiterP__0__ResourceDefaultOwner__release>:
    4dcc:	d2 93 16 11 	cmp.b	#1,	&0x1116	;r3 As==01
    4dd0:	13 20       	jnz	$+40     	;abs 0x4df8
    4dd2:	5f 42 62 11 	mov.b	&0x1162,r15	
    4dd6:	5f 93       	cmp.b	#1,	r15	;r3 As==01
    4dd8:	05 20       	jnz	$+12     	;abs 0x4de4
    4dda:	7f 40 0b 00 	mov.b	#11,	r15	;#0x000b
    4dde:	b0 12 80 4d 	call	#0x4d80	
    4de2:	08 3c       	jmp	$+18     	;abs 0x4df4
    4de4:	6f 93       	cmp.b	#2,	r15	;r3 As==10
    4de6:	0a 20       	jnz	$+22     	;abs 0x4dfc
    4de8:	d2 42 1c 15 16 11 	mov.b	&0x151c,&0x1116	
    4dee:	f2 40 03 00 62 11 	mov.b	#3,	&0x1162	;#0x0003
    4df4:	4f 43       	clr.b	r15		
    4df6:	30 41       	ret			
    4df8:	5f 43       	mov.b	#1,	r15	;r3 As==01
    4dfa:	30 41       	ret			
    4dfc:	5f 43       	mov.b	#1,	r15	;r3 As==01
    4dfe:	30 41       	ret			

00004e00 <CtpForwardingEngineP__0__sendTask__postTask>:
    4e00:	7f 40 19 00 	mov.b	#25,	r15	;#0x0019
    4e04:	b0 12 80 4d 	call	#0x4d80	
    4e08:	30 41       	ret			

00004e0a <TransformCounterC__1__Counter__get>:
    4e0a:	0b 12       	push	r11		
    4e0c:	0a 12       	push	r10		
    4e0e:	09 12       	push	r9		
    4e10:	08 12       	push	r8		
    4e12:	07 12       	push	r7		
    4e14:	b0 12 66 4d 	call	#0x4d66	
    4e18:	47 4f       	mov.b	r15,	r7	
    4e1a:	1a 42 dc 12 	mov	&0x12dc,r10	
    4e1e:	1b 42 de 12 	mov	&0x12de,r11	
    4e22:	b0 12 22 47 	call	#0x4722	
    4e26:	0d 4f       	mov	r15,	r13	
    4e28:	1f 42 80 01 	mov	&0x0180,r15	
    4e2c:	5f f3       	and.b	#1,	r15	;r3 As==01
    4e2e:	05 24       	jz	$+12     	;abs 0x4e3a
    4e30:	1a 53       	inc	r10		
    4e32:	0b 63       	adc	r11		
    4e34:	b0 12 22 47 	call	#0x4722	
    4e38:	0d 4f       	mov	r15,	r13	
    4e3a:	12 c3       	clrc			
    4e3c:	0d 10       	rrc	r13		
    4e3e:	12 c3       	clrc			
    4e40:	0d 10       	rrc	r13		
    4e42:	12 c3       	clrc			
    4e44:	0d 10       	rrc	r13		
    4e46:	12 c3       	clrc			
    4e48:	0d 10       	rrc	r13		
    4e4a:	12 c3       	clrc			
    4e4c:	0d 10       	rrc	r13		
    4e4e:	08 4d       	mov	r13,	r8	
    4e50:	09 43       	clr	r9		
    4e52:	0e 4a       	mov	r10,	r14	
    4e54:	0f 4b       	mov	r11,	r15	
    4e56:	4f ea       	xor.b	r10,	r15	
    4e58:	0f ea       	xor	r10,	r15	
    4e5a:	8f 10       	swpb	r15		
    4e5c:	4e 4e       	mov.b	r14,	r14	
    4e5e:	8e 10       	swpb	r14		
    4e60:	0e 5e       	rla	r14		
    4e62:	0f 6f       	rlc	r15		
    4e64:	0e 5e       	rla	r14		
    4e66:	0f 6f       	rlc	r15		
    4e68:	0e 5e       	rla	r14		
    4e6a:	0f 6f       	rlc	r15		
    4e6c:	08 de       	bis	r14,	r8	
    4e6e:	09 df       	bis	r15,	r9	
    4e70:	4f 47       	mov.b	r7,	r15	
    4e72:	b0 12 78 4d 	call	#0x4d78	
    4e76:	0e 48       	mov	r8,	r14	
    4e78:	0f 49       	mov	r9,	r15	
    4e7a:	37 41       	pop	r7		
    4e7c:	38 41       	pop	r8		
    4e7e:	39 41       	pop	r9		
    4e80:	3a 41       	pop	r10		
    4e82:	3b 41       	pop	r11		
    4e84:	30 41       	ret			

00004e86 <TransformAlarmC__2__set_alarm>:
    4e86:	0b 12       	push	r11		
    4e88:	0a 12       	push	r10		
    4e8a:	09 12       	push	r9		
    4e8c:	08 12       	push	r8		
    4e8e:	b0 12 0a 4e 	call	#0x4e0a	
    4e92:	08 4e       	mov	r14,	r8	
    4e94:	09 4f       	mov	r15,	r9	
    4e96:	1e 42 10 15 	mov	&0x1510,r14	
    4e9a:	1f 42 12 15 	mov	&0x1512,r15	
    4e9e:	0a 4e       	mov	r14,	r10	
    4ea0:	0b 4f       	mov	r15,	r11	
    4ea2:	1a 52 c4 12 	add	&0x12c4,r10	
    4ea6:	1b 62 c6 12 	addc	&0x12c6,r11	
    4eaa:	09 9f       	cmp	r15,	r9	
    4eac:	09 28       	jnc	$+20     	;abs 0x4ec0
    4eae:	02 20       	jnz	$+6      	;abs 0x4eb4
    4eb0:	08 9e       	cmp	r14,	r8	
    4eb2:	06 28       	jnc	$+14     	;abs 0x4ec0
    4eb4:	0b 9f       	cmp	r15,	r11	
    4eb6:	10 28       	jnc	$+34     	;abs 0x4ed8
    4eb8:	09 20       	jnz	$+20     	;abs 0x4ecc
    4eba:	0a 9e       	cmp	r14,	r10	
    4ebc:	0d 28       	jnc	$+28     	;abs 0x4ed8
    4ebe:	06 3c       	jmp	$+14     	;abs 0x4ecc
    4ec0:	0b 9f       	cmp	r15,	r11	
    4ec2:	04 28       	jnc	$+10     	;abs 0x4ecc
    4ec4:	0f 9b       	cmp	r11,	r15	
    4ec6:	27 28       	jnc	$+80     	;abs 0x4f16
    4ec8:	0a 9e       	cmp	r14,	r10	
    4eca:	25 2c       	jc	$+76     	;abs 0x4f16
    4ecc:	09 9b       	cmp	r11,	r9	
    4ece:	04 28       	jnc	$+10     	;abs 0x4ed8
    4ed0:	0b 99       	cmp	r9,	r11	
    4ed2:	21 28       	jnc	$+68     	;abs 0x4f16
    4ed4:	08 9a       	cmp	r10,	r8	
    4ed6:	1f 2c       	jc	$+64     	;abs 0x4f16
    4ed8:	0c 4a       	mov	r10,	r12	
    4eda:	0d 4b       	mov	r11,	r13	
    4edc:	0c 88       	sub	r8,	r12	
    4ede:	0d 79       	subc	r9,	r13	
    4ee0:	0d 93       	tst	r13		
    4ee2:	03 20       	jnz	$+8      	;abs 0x4eea
    4ee4:	3c 90 01 04 	cmp	#1025,	r12	;#0x0401
    4ee8:	18 28       	jnc	$+50     	;abs 0x4f1a
    4eea:	0e 48       	mov	r8,	r14	
    4eec:	0f 49       	mov	r9,	r15	
    4eee:	3e 50 00 04 	add	#1024,	r14	;#0x0400
    4ef2:	0f 63       	adc	r15		
    4ef4:	82 4e 10 15 	mov	r14,	&0x1510	
    4ef8:	82 4f 12 15 	mov	r15,	&0x1512	
    4efc:	0e 4c       	mov	r12,	r14	
    4efe:	0f 4d       	mov	r13,	r15	
    4f00:	3e 50 00 fc 	add	#-1024,	r14	;#0xfc00
    4f04:	3f 63       	addc	#-1,	r15	;r3 As==11
    4f06:	82 4e c4 12 	mov	r14,	&0x12c4	
    4f0a:	82 4f c6 12 	mov	r15,	&0x12c6	
    4f0e:	3c 40 00 04 	mov	#1024,	r12	;#0x0400
    4f12:	0d 43       	clr	r13		
    4f14:	0a 3c       	jmp	$+22     	;abs 0x4f2a
    4f16:	0c 43       	clr	r12		
    4f18:	0d 43       	clr	r13		
    4f1a:	82 4a 10 15 	mov	r10,	&0x1510	
    4f1e:	82 4b 12 15 	mov	r11,	&0x1512	
    4f22:	82 43 c4 12 	mov	#0,	&0x12c4	;r3 As==00
    4f26:	82 43 c6 12 	mov	#0,	&0x12c6	;r3 As==00
    4f2a:	0a 4c       	mov	r12,	r10	
    4f2c:	0a 5a       	rla	r10		
    4f2e:	0a 5a       	rla	r10		
    4f30:	0a 5a       	rla	r10		
    4f32:	0a 5a       	rla	r10		
    4f34:	0a 5a       	rla	r10		
    4f36:	b0 12 22 47 	call	#0x4722	
    4f3a:	08 58       	rla	r8		
    4f3c:	08 58       	rla	r8		
    4f3e:	08 58       	rla	r8		
    4f40:	08 58       	rla	r8		
    4f42:	08 58       	rla	r8		
    4f44:	0e 4f       	mov	r15,	r14	
    4f46:	0e 88       	sub	r8,	r14	
    4f48:	0e 9a       	cmp	r10,	r14	
    4f4a:	04 2c       	jc	$+10     	;abs 0x4f54
    4f4c:	0a 8e       	sub	r14,	r10	
    4f4e:	3a 90 03 00 	cmp	#3,	r10	;#0x0003
    4f52:	06 2c       	jc	$+14     	;abs 0x4f60
    4f54:	b0 12 22 47 	call	#0x4722	
    4f58:	2f 53       	incd	r15		
    4f5a:	82 4f 98 01 	mov	r15,	&0x0198	
    4f5e:	03 3c       	jmp	$+8      	;abs 0x4f66
    4f60:	0a 5f       	add	r15,	r10	
    4f62:	82 4a 98 01 	mov	r10,	&0x0198	
    4f66:	b2 f0 fe ff 88 01 	and	#-2,	&0x0188	;#0xfffe
    4f6c:	b2 d0 10 00 88 01 	bis	#16,	&0x0188	;#0x0010
    4f72:	38 41       	pop	r8		
    4f74:	39 41       	pop	r9		
    4f76:	3a 41       	pop	r10		
    4f78:	3b 41       	pop	r11		
    4f7a:	30 41       	ret			

00004f7c <AdcStreamP__nextAlarm>:
    4f7c:	92 42 2e 18 10 15 	mov	&0x182e,&0x1510	
    4f82:	92 42 30 18 12 15 	mov	&0x1830,&0x1512	
    4f88:	92 42 9e 14 c4 12 	mov	&0x149e,&0x12c4	
    4f8e:	92 42 a0 14 c6 12 	mov	&0x14a0,&0x12c6	
    4f94:	b0 12 86 4e 	call	#0x4e86	
    4f98:	92 52 9e 14 2e 18 	add	&0x149e,&0x182e	
    4f9e:	92 62 a0 14 30 18 	addc	&0x14a0,&0x1830	
    4fa4:	30 41       	ret			

00004fa6 <VirtualizeTimerC__0__Timer__startOneShot>:
    4fa6:	0b 12       	push	r11		
    4fa8:	09 12       	push	r9		
    4faa:	08 12       	push	r8		
    4fac:	4b 4f       	mov.b	r15,	r11	
    4fae:	08 4d       	mov	r13,	r8	
    4fb0:	09 4e       	mov	r14,	r9	
    4fb2:	b0 12 0a 4e 	call	#0x4e0a	
    4fb6:	4b 4b       	mov.b	r11,	r11	
    4fb8:	0b 5b       	rla	r11		
    4fba:	0c 4b       	mov	r11,	r12	
    4fbc:	0c 5c       	rla	r12		
    4fbe:	0c 5c       	rla	r12		
    4fc0:	0c 5b       	add	r11,	r12	
    4fc2:	3c 50 d4 13 	add	#5076,	r12	;#0x13d4
    4fc6:	8c 4e 00 00 	mov	r14,	0(r12)	;0x0000(r12)
    4fca:	8c 4f 02 00 	mov	r15,	2(r12)	;0x0002(r12)
    4fce:	8c 48 04 00 	mov	r8,	4(r12)	;0x0004(r12)
    4fd2:	8c 49 06 00 	mov	r9,	6(r12)	;0x0006(r12)
    4fd6:	fc d0 03 00 08 00 	bis.b	#3,	8(r12)	;#0x0003, 0x0008(r12)
    4fdc:	7f 40 0e 00 	mov.b	#14,	r15	;#0x000e
    4fe0:	b0 12 80 4d 	call	#0x4d80	
    4fe4:	38 41       	pop	r8		
    4fe6:	39 41       	pop	r9		
    4fe8:	3b 41       	pop	r11		
    4fea:	30 41       	ret			

00004fec <DefaultLplP__initializeSend>:
    4fec:	1f 42 f6 14 	mov	&0x14f6,r15	
    4ff0:	5e 4f 32 00 	mov.b	50(r15),r14	;0x0032(r15)
    4ff4:	8e 10       	swpb	r14		
    4ff6:	5d 4f 33 00 	mov.b	51(r15),r13	;0x0033(r15)
    4ffa:	0e dd       	bis	r13,	r14	
    4ffc:	0e 93       	tst	r14		
    4ffe:	2e 24       	jz	$+94     	;abs 0x505c
    5000:	5d 4f 07 00 	mov.b	7(r15),	r13	;0x0007(r15)
    5004:	8d 10       	swpb	r13		
    5006:	5e 4f 06 00 	mov.b	6(r15),	r14	;0x0006(r15)
    500a:	0d de       	bis	r14,	r13	
    500c:	5e 4f 02 00 	mov.b	2(r15),	r14	;0x0002(r15)
    5010:	5c 4f 01 00 	mov.b	1(r15),	r12	;0x0001(r15)
    5014:	3d 93       	cmp	#-1,	r13	;r3 As==11
    5016:	0a 20       	jnz	$+22     	;abs 0x502c
    5018:	8e 10       	swpb	r14		
    501a:	0e dc       	bis	r12,	r14	
    501c:	3e f0 df ff 	and	#-33,	r14	;#0xffdf
    5020:	cf 4e 01 00 	mov.b	r14,	1(r15)	;0x0001(r15)
    5024:	8e 10       	swpb	r14		
    5026:	cf 4e 02 00 	mov.b	r14,	2(r15)	;0x0002(r15)
    502a:	0a 3c       	jmp	$+22     	;abs 0x5040
    502c:	0d 4c       	mov	r12,	r13	
    502e:	3d d0 20 00 	bis	#32,	r13	;#0x0020
    5032:	8e 10       	swpb	r14		
    5034:	0d de       	bis	r14,	r13	
    5036:	cf 4d 01 00 	mov.b	r13,	1(r15)	;0x0001(r15)
    503a:	8d 10       	swpb	r13		
    503c:	cf 4d 02 00 	mov.b	r13,	2(r15)	;0x0002(r15)
    5040:	1f 42 f6 14 	mov	&0x14f6,r15	
    5044:	5d 4f 32 00 	mov.b	50(r15),r13	;0x0032(r15)
    5048:	8d 10       	swpb	r13		
    504a:	5f 4f 33 00 	mov.b	51(r15),r15	;0x0033(r15)
    504e:	0d df       	bis	r15,	r13	
    5050:	3d 50 14 00 	add	#20,	r13	;#0x0014
    5054:	0e 43       	clr	r14		
    5056:	6f 42       	mov.b	#4,	r15	;r2 As==10
    5058:	b0 12 a6 4f 	call	#0x4fa6	
    505c:	7f 40 10 00 	mov.b	#16,	r15	;#0x0010
    5060:	b0 12 80 4d 	call	#0x4d80	
    5064:	30 41       	ret			

00005066 <DefaultLplP__startOffTimer>:
    5066:	1d 42 0e 11 	mov	&0x110e,r13	
    506a:	0e 43       	clr	r14		
    506c:	7f 40 03 00 	mov.b	#3,	r15	;#0x0003
    5070:	b0 12 a6 4f 	call	#0x4fa6	
    5074:	30 41       	ret			

00005076 <VirtualizeTimerC__0__Timer__startPeriodic>:
    5076:	0b 12       	push	r11		
    5078:	09 12       	push	r9		
    507a:	08 12       	push	r8		
    507c:	4b 4f       	mov.b	r15,	r11	
    507e:	08 4d       	mov	r13,	r8	
    5080:	09 4e       	mov	r14,	r9	
    5082:	b0 12 0a 4e 	call	#0x4e0a	
    5086:	4b 4b       	mov.b	r11,	r11	
    5088:	0b 5b       	rla	r11		
    508a:	0c 4b       	mov	r11,	r12	
    508c:	0c 5c       	rla	r12		
    508e:	0c 5c       	rla	r12		
    5090:	0c 5b       	add	r11,	r12	
    5092:	3c 50 d4 13 	add	#5076,	r12	;#0x13d4
    5096:	8c 4e 00 00 	mov	r14,	0(r12)	;0x0000(r12)
    509a:	8c 4f 02 00 	mov	r15,	2(r12)	;0x0002(r12)
    509e:	8c 48 04 00 	mov	r8,	4(r12)	;0x0004(r12)
    50a2:	8c 49 06 00 	mov	r9,	6(r12)	;0x0006(r12)
    50a6:	5f 4c 08 00 	mov.b	8(r12),	r15	;0x0008(r12)
    50aa:	7f f0 fe ff 	and.b	#-2,	r15	;#0xfffe
    50ae:	6f d3       	bis.b	#2,	r15	;r3 As==10
    50b0:	cc 4f 08 00 	mov.b	r15,	8(r12)	;0x0008(r12)
    50b4:	7f 40 0e 00 	mov.b	#14,	r15	;#0x000e
    50b8:	b0 12 80 4d 	call	#0x4d80	
    50bc:	38 41       	pop	r8		
    50be:	39 41       	pop	r9		
    50c0:	3b 41       	pop	r11		
    50c2:	30 41       	ret			

000050c4 <DisseminatorP__0__DisseminationValue__changed>:
    50c4:	f2 f0 fd ff 68 14 	and.b	#-3,	&0x1468	;#0xfffd
    50ca:	1d 42 00 15 	mov	&0x1500,r13	
    50ce:	1e 42 02 15 	mov	&0x1502,r14	
    50d2:	7f 40 0e 00 	mov.b	#14,	r15	;#0x000e
    50d6:	b0 12 76 50 	call	#0x5076	
    50da:	30 41       	ret			

000050dc <TransformAlarmC__1__set_alarm>:
    50dc:	0b 12       	push	r11		
    50de:	0a 12       	push	r10		
    50e0:	09 12       	push	r9		
    50e2:	08 12       	push	r8		
    50e4:	b0 12 0a 4e 	call	#0x4e0a	
    50e8:	08 4e       	mov	r14,	r8	
    50ea:	09 4f       	mov	r15,	r9	
    50ec:	1e 42 76 11 	mov	&0x1176,r14	
    50f0:	1f 42 78 11 	mov	&0x1178,r15	
    50f4:	0a 4e       	mov	r14,	r10	
    50f6:	0b 4f       	mov	r15,	r11	
    50f8:	1a 52 2e 12 	add	&0x122e,r10	
    50fc:	1b 62 30 12 	addc	&0x1230,r11	
    5100:	09 9f       	cmp	r15,	r9	
    5102:	09 28       	jnc	$+20     	;abs 0x5116
    5104:	02 20       	jnz	$+6      	;abs 0x510a
    5106:	08 9e       	cmp	r14,	r8	
    5108:	06 28       	jnc	$+14     	;abs 0x5116
    510a:	0b 9f       	cmp	r15,	r11	
    510c:	10 28       	jnc	$+34     	;abs 0x512e
    510e:	09 20       	jnz	$+20     	;abs 0x5122
    5110:	0a 9e       	cmp	r14,	r10	
    5112:	0d 28       	jnc	$+28     	;abs 0x512e
    5114:	06 3c       	jmp	$+14     	;abs 0x5122
    5116:	0b 9f       	cmp	r15,	r11	
    5118:	04 28       	jnc	$+10     	;abs 0x5122
    511a:	0f 9b       	cmp	r11,	r15	
    511c:	27 28       	jnc	$+80     	;abs 0x516c
    511e:	0a 9e       	cmp	r14,	r10	
    5120:	25 2c       	jc	$+76     	;abs 0x516c
    5122:	09 9b       	cmp	r11,	r9	
    5124:	04 28       	jnc	$+10     	;abs 0x512e
    5126:	0b 99       	cmp	r9,	r11	
    5128:	21 28       	jnc	$+68     	;abs 0x516c
    512a:	08 9a       	cmp	r10,	r8	
    512c:	1f 2c       	jc	$+64     	;abs 0x516c
    512e:	0c 4a       	mov	r10,	r12	
    5130:	0d 4b       	mov	r11,	r13	
    5132:	0c 88       	sub	r8,	r12	
    5134:	0d 79       	subc	r9,	r13	
    5136:	0d 93       	tst	r13		
    5138:	03 20       	jnz	$+8      	;abs 0x5140
    513a:	3c 90 01 04 	cmp	#1025,	r12	;#0x0401
    513e:	18 28       	jnc	$+50     	;abs 0x5170
    5140:	0e 48       	mov	r8,	r14	
    5142:	0f 49       	mov	r9,	r15	
    5144:	3e 50 00 04 	add	#1024,	r14	;#0x0400
    5148:	0f 63       	adc	r15		
    514a:	82 4e 76 11 	mov	r14,	&0x1176	
    514e:	82 4f 78 11 	mov	r15,	&0x1178	
    5152:	0e 4c       	mov	r12,	r14	
    5154:	0f 4d       	mov	r13,	r15	
    5156:	3e 50 00 fc 	add	#-1024,	r14	;#0xfc00
    515a:	3f 63       	addc	#-1,	r15	;r3 As==11
    515c:	82 4e 2e 12 	mov	r14,	&0x122e	
    5160:	82 4f 30 12 	mov	r15,	&0x1230	
    5164:	3c 40 00 04 	mov	#1024,	r12	;#0x0400
    5168:	0d 43       	clr	r13		
    516a:	0a 3c       	jmp	$+22     	;abs 0x5180
    516c:	0c 43       	clr	r12		
    516e:	0d 43       	clr	r13		
    5170:	82 4a 76 11 	mov	r10,	&0x1176	
    5174:	82 4b 78 11 	mov	r11,	&0x1178	
    5178:	82 43 2e 12 	mov	#0,	&0x122e	;r3 As==00
    517c:	82 43 30 12 	mov	#0,	&0x1230	;r3 As==00
    5180:	0a 4c       	mov	r12,	r10	
    5182:	0a 5a       	rla	r10		
    5184:	0a 5a       	rla	r10		
    5186:	0a 5a       	rla	r10		
    5188:	0a 5a       	rla	r10		
    518a:	0a 5a       	rla	r10		
    518c:	b0 12 22 47 	call	#0x4722	
    5190:	08 58       	rla	r8		
    5192:	08 58       	rla	r8		
    5194:	08 58       	rla	r8		
    5196:	08 58       	rla	r8		
    5198:	08 58       	rla	r8		
    519a:	0e 4f       	mov	r15,	r14	
    519c:	0e 88       	sub	r8,	r14	
    519e:	0e 9a       	cmp	r10,	r14	
    51a0:	04 2c       	jc	$+10     	;abs 0x51aa
    51a2:	0a 8e       	sub	r14,	r10	
    51a4:	3a 90 03 00 	cmp	#3,	r10	;#0x0003
    51a8:	06 2c       	jc	$+14     	;abs 0x51b6
    51aa:	b0 12 22 47 	call	#0x4722	
    51ae:	2f 53       	incd	r15		
    51b0:	82 4f 96 01 	mov	r15,	&0x0196	
    51b4:	03 3c       	jmp	$+8      	;abs 0x51bc
    51b6:	0a 5f       	add	r15,	r10	
    51b8:	82 4a 96 01 	mov	r10,	&0x0196	
    51bc:	b2 f0 fe ff 86 01 	and	#-2,	&0x0186	;#0xfffe
    51c2:	b2 d0 10 00 86 01 	bis	#16,	&0x0186	;#0x0010
    51c8:	38 41       	pop	r8		
    51ca:	39 41       	pop	r9		
    51cc:	3a 41       	pop	r10		
    51ce:	3b 41       	pop	r11		
    51d0:	30 41       	ret			

000051d2 <AdcStreamP__nextBuffer>:
    51d2:	0b 12       	push	r11		
    51d4:	0a 12       	push	r10		
    51d6:	4a 4f       	mov.b	r15,	r10	
    51d8:	b0 12 66 4d 	call	#0x4d66	
    51dc:	4b 4f       	mov.b	r15,	r11	
    51de:	5e 42 04 11 	mov.b	&0x1104,r14	
    51e2:	0e 5e       	rla	r14		
    51e4:	0c 4e       	mov	r14,	r12	
    51e6:	3c 50 de 11 	add	#4574,	r12	;#0x11de
    51ea:	2d 4c       	mov	@r12,	r13	
    51ec:	0d 93       	tst	r13		
    51ee:	0b 20       	jnz	$+24     	;abs 0x5206
    51f0:	8e 43 12 18 	mov	#0,	6162(r14);r3 As==00, 0x1812(r14)
    51f4:	7f 40 1f 00 	mov.b	#31,	r15	;#0x001f
    51f8:	b0 12 80 4d 	call	#0x4d80	
    51fc:	4f 4b       	mov.b	r11,	r15	
    51fe:	b0 12 78 4d 	call	#0x4d78	
    5202:	5f 43       	mov.b	#1,	r15	;r3 As==01
    5204:	16 3c       	jmp	$+46     	;abs 0x5232
    5206:	1f 4d 02 00 	mov	2(r13),	r15	;0x0002(r13)
    520a:	8c 4f 00 00 	mov	r15,	0(r12)	;0x0000(r12)
    520e:	0f 93       	tst	r15		
    5210:	02 20       	jnz	$+6      	;abs 0x5216
    5212:	8e 4c 12 18 	mov	r12,	6162(r14);0x1812(r14)
    5216:	a2 4d d8 14 	mov	@r13,	&0x14d8	
    521a:	82 4d ba 17 	mov	r13,	&0x17ba	
    521e:	82 4d dc 11 	mov	r13,	&0x11dc	
    5222:	4a 93       	tst.b	r10		
    5224:	02 24       	jz	$+6      	;abs 0x522a
    5226:	b0 12 7c 4f 	call	#0x4f7c	
    522a:	4f 4b       	mov.b	r11,	r15	
    522c:	b0 12 78 4d 	call	#0x4d78	
    5230:	4f 43       	clr.b	r15		
    5232:	3a 41       	pop	r10		
    5234:	3b 41       	pop	r11		
    5236:	30 41       	ret			

00005238 <Msp430Adc12ImplP__SingleChannel__singleDataReady>:
    5238:	0b 12       	push	r11		
    523a:	4f 93       	tst.b	r15		
    523c:	03 24       	jz	$+8      	;abs 0x5244
    523e:	5f 93       	cmp.b	#1,	r15	;r3 As==01
    5240:	48 20       	jnz	$+146    	;abs 0x52d2
    5242:	0c 3c       	jmp	$+26     	;abs 0x525c
    5244:	c2 93 fa 12 	tst.b	&0x12fa	
    5248:	42 20       	jnz	$+134    	;abs 0x52ce
    524a:	c2 43 04 15 	mov.b	#0,	&0x1504	;r3 As==00
    524e:	82 4e 28 18 	mov	r14,	&0x1828	
    5252:	7f 40 1c 00 	mov.b	#28,	r15	;#0x001c
    5256:	b0 12 80 4d 	call	#0x4d80	
    525a:	39 3c       	jmp	$+116    	;abs 0x52ce
    525c:	5f 42 04 11 	mov.b	&0x1104,r15	
    5260:	5f 93       	cmp.b	#1,	r15	;r3 As==01
    5262:	37 24       	jz	$+112    	;abs 0x52d2
    5264:	82 93 d8 14 	tst	&0x14d8	
    5268:	07 20       	jnz	$+16     	;abs 0x5278
    526a:	b0 12 0a 4e 	call	#0x4e0a	
    526e:	82 4e 2e 18 	mov	r14,	&0x182e	
    5272:	82 4f 30 18 	mov	r15,	&0x1830	
    5276:	24 3c       	jmp	$+74     	;abs 0x52c0
    5278:	1b 42 dc 11 	mov	&0x11dc,r11	
    527c:	8b 4e 00 00 	mov	r14,	0(r11)	;0x0000(r11)
    5280:	2b 53       	incd	r11		
    5282:	82 4b dc 11 	mov	r11,	&0x11dc	
    5286:	1d 42 ba 17 	mov	&0x17ba,r13	
    528a:	1c 42 d8 14 	mov	&0x14d8,r12	
    528e:	0e 4c       	mov	r12,	r14	
    5290:	0e 5e       	rla	r14		
    5292:	0e 5d       	add	r13,	r14	
    5294:	0b 9e       	cmp	r14,	r11	
    5296:	18 20       	jnz	$+50     	;abs 0x52c8
    5298:	82 93 d8 12 	tst	&0x12d8	
    529c:	09 24       	jz	$+20     	;abs 0x52b0
    529e:	4f 4f       	mov.b	r15,	r15	
    52a0:	0f 5f       	rla	r15		
    52a2:	8f 43 12 18 	mov	#0,	6162(r15);r3 As==00, 0x1812(r15)
    52a6:	7f 40 20 00 	mov.b	#32,	r15	;#0x0020
    52aa:	b0 12 80 4d 	call	#0x4d80	
    52ae:	11 3c       	jmp	$+36     	;abs 0x52d2
    52b0:	82 4c 20 18 	mov	r12,	&0x1820	
    52b4:	82 4d d8 12 	mov	r13,	&0x12d8	
    52b8:	7f 40 21 00 	mov.b	#33,	r15	;#0x0021
    52bc:	b0 12 80 4d 	call	#0x4d80	
    52c0:	5f 43       	mov.b	#1,	r15	;r3 As==01
    52c2:	b0 12 d2 51 	call	#0x51d2	
    52c6:	05 3c       	jmp	$+12     	;abs 0x52d2
    52c8:	b0 12 7c 4f 	call	#0x4f7c	
    52cc:	02 3c       	jmp	$+6      	;abs 0x52d2
    52ce:	4f 43       	clr.b	r15		
    52d0:	01 3c       	jmp	$+4      	;abs 0x52d4
    52d2:	5f 43       	mov.b	#1,	r15	;r3 As==01
    52d4:	3b 41       	pop	r11		
    52d6:	30 41       	ret			

000052d8 <Msp430Adc12ImplP__SingleChannel__getData>:
    52d8:	0b 12       	push	r11		
    52da:	0a 12       	push	r10		
    52dc:	4a 4f       	mov.b	r15,	r10	
    52de:	b0 12 66 4d 	call	#0x4d66	
    52e2:	4b 4f       	mov.b	r15,	r11	
    52e4:	e2 93 2e 11 	cmp.b	#2,	&0x112e	;r3 As==10
    52e8:	03 20       	jnz	$+8      	;abs 0x52f0
    52ea:	5e 42 06 11 	mov.b	&0x1106,r14	
    52ee:	01 3c       	jmp	$+4      	;abs 0x52f2
    52f0:	7e 43       	mov.b	#-1,	r14	;r3 As==11
    52f2:	4e 9a       	cmp.b	r10,	r14	
    52f4:	8b 20       	jnz	$+280    	;abs 0x540c
    52f6:	5d 42 38 13 	mov.b	&0x1338,r13	
    52fa:	4f 4d       	mov.b	r13,	r15	
    52fc:	3f b2       	bit	#8,	r15	;r2 As==11
    52fe:	09 24       	jz	$+20     	;abs 0x5312
    5300:	82 93 f8 12 	tst	&0x12f8	
    5304:	06 20       	jnz	$+14     	;abs 0x5312
    5306:	4f 4b       	mov.b	r11,	r15	
    5308:	b0 12 78 4d 	call	#0x4d78	
    530c:	7f 40 06 00 	mov.b	#6,	r15	;#0x0006
    5310:	81 3c       	jmp	$+260    	;abs 0x5414
    5312:	3f f0 20 00 	and	#32,	r15	;#0x0020
    5316:	06 24       	jz	$+14     	;abs 0x5324
    5318:	4f 4b       	mov.b	r11,	r15	
    531a:	b0 12 78 4d 	call	#0x4d78	
    531e:	7f 40 05 00 	mov.b	#5,	r15	;#0x0005
    5322:	78 3c       	jmp	$+242    	;abs 0x5414
    5324:	7d d0 20 00 	bis.b	#32,	r13	;#0x0020
    5328:	c2 4d 38 13 	mov.b	r13,	&0x1338	
    532c:	c2 4e d4 11 	mov.b	r14,	&0x11d4	
    5330:	4f 43       	clr.b	r15		
    5332:	b0 12 18 47 	call	#0x4718	
    5336:	7f f0 0f 00 	and.b	#15,	r15	;#0x000f
    533a:	7f 92       	cmp.b	#8,	r15	;r2 As==11
    533c:	4d 2c       	jc	$+156    	;abs 0x53d8
    533e:	0e 4f       	mov	r15,	r14	
    5340:	3e f0 0f 00 	and	#15,	r14	;#0x000f
    5344:	0e 5e       	rla	r14		
    5346:	5f 42 37 00 	mov.b	&0x0037,r15	
    534a:	10 4e 1e a0 	br	-24546(r14)	;0xa01e(r14)
    534e:	5f d3       	bis.b	#1,	r15	;r3 As==01
    5350:	c2 4f 37 00 	mov.b	r15,	&0x0037	
    5354:	5f 42 36 00 	mov.b	&0x0036,r15	
    5358:	7f f0 fe ff 	and.b	#-2,	r15	;#0xfffe
    535c:	3b 3c       	jmp	$+120    	;abs 0x53d4
    535e:	6f d3       	bis.b	#2,	r15	;r3 As==10
    5360:	c2 4f 37 00 	mov.b	r15,	&0x0037	
    5364:	5f 42 36 00 	mov.b	&0x0036,r15	
    5368:	7f f0 fd ff 	and.b	#-3,	r15	;#0xfffd
    536c:	33 3c       	jmp	$+104    	;abs 0x53d4
    536e:	6f d2       	bis.b	#4,	r15	;r2 As==10
    5370:	c2 4f 37 00 	mov.b	r15,	&0x0037	
    5374:	5f 42 36 00 	mov.b	&0x0036,r15	
    5378:	7f f0 fb ff 	and.b	#-5,	r15	;#0xfffb
    537c:	2b 3c       	jmp	$+88     	;abs 0x53d4
    537e:	7f d2       	bis.b	#8,	r15	;r2 As==11
    5380:	c2 4f 37 00 	mov.b	r15,	&0x0037	
    5384:	5f 42 36 00 	mov.b	&0x0036,r15	
    5388:	7f f0 f7 ff 	and.b	#-9,	r15	;#0xfff7
    538c:	23 3c       	jmp	$+72     	;abs 0x53d4
    538e:	7f d0 10 00 	bis.b	#16,	r15	;#0x0010
    5392:	c2 4f 37 00 	mov.b	r15,	&0x0037	
    5396:	5f 42 36 00 	mov.b	&0x0036,r15	
    539a:	7f f0 ef ff 	and.b	#-17,	r15	;#0xffef
    539e:	1a 3c       	jmp	$+54     	;abs 0x53d4
    53a0:	7f d0 20 00 	bis.b	#32,	r15	;#0x0020
    53a4:	c2 4f 37 00 	mov.b	r15,	&0x0037	
    53a8:	5f 42 36 00 	mov.b	&0x0036,r15	
    53ac:	7f f0 df ff 	and.b	#-33,	r15	;#0xffdf
    53b0:	11 3c       	jmp	$+36     	;abs 0x53d4
    53b2:	7f d0 40 00 	bis.b	#64,	r15	;#0x0040
    53b6:	c2 4f 37 00 	mov.b	r15,	&0x0037	
    53ba:	5f 42 36 00 	mov.b	&0x0036,r15	
    53be:	7f f0 bf ff 	and.b	#-65,	r15	;#0xffbf
    53c2:	08 3c       	jmp	$+18     	;abs 0x53d4
    53c4:	7f d0 80 ff 	bis.b	#-128,	r15	;#0xff80
    53c8:	c2 4f 37 00 	mov.b	r15,	&0x0037	
    53cc:	5f 42 36 00 	mov.b	&0x0036,r15	
    53d0:	7f f0 7f 00 	and.b	#127,	r15	;#0x007f
    53d4:	c2 4f 36 00 	mov.b	r15,	&0x0036	
    53d8:	b2 d0 10 00 a0 01 	bis	#16,	&0x01a0	;#0x0010
    53de:	b2 d0 03 00 a0 01 	bis	#3,	&0x01a0	;#0x0003
    53e4:	5f 42 38 13 	mov.b	&0x1338,r15	
    53e8:	3f f0 40 00 	and	#64,	r15	;#0x0040
    53ec:	0a 24       	jz	$+22     	;abs 0x5402
    53ee:	82 43 64 01 	mov	#0,	&0x0164	;r3 As==00
    53f2:	a2 42 64 01 	mov	#4,	&0x0164	;r2 As==10
    53f6:	b2 40 e0 00 64 01 	mov	#224,	&0x0164	;#0x00e0
    53fc:	1f 43       	mov	#1,	r15	;r3 As==01
    53fe:	b0 12 4e 46 	call	#0x464e	
    5402:	4f 4b       	mov.b	r11,	r15	
    5404:	b0 12 78 4d 	call	#0x4d78	
    5408:	4f 43       	clr.b	r15		
    540a:	04 3c       	jmp	$+10     	;abs 0x5414
    540c:	4f 4b       	mov.b	r11,	r15	
    540e:	b0 12 78 4d 	call	#0x4d78	
    5412:	5f 43       	mov.b	#1,	r15	;r3 As==01
    5414:	3a 41       	pop	r10		
    5416:	3b 41       	pop	r11		
    5418:	30 41       	ret			

0000541a <AdcStreamP__sampleSingle>:
    541a:	c2 93 04 11 	tst.b	&0x1104	
    541e:	03 20       	jnz	$+8      	;abs 0x5426
    5420:	5f 43       	mov.b	#1,	r15	;r3 As==01
    5422:	b0 12 d8 52 	call	#0x52d8	
    5426:	30 41       	ret			

00005428 <AdcStreamP__nextMultiple.part.222>:
    5428:	0b 12       	push	r11		
    542a:	0a 12       	push	r10		
    542c:	09 12       	push	r9		
    542e:	08 12       	push	r8		
    5430:	07 12       	push	r7		
    5432:	06 12       	push	r6		
    5434:	05 12       	push	r5		
    5436:	04 12       	push	r4		
    5438:	21 82       	sub	#4,	r1	;r2 As==10
    543a:	44 4f       	mov.b	r15,	r4	
    543c:	4f 93       	tst.b	r15		
    543e:	03 24       	jz	$+8      	;abs 0x5446
    5440:	3d 40 e4 a0 	mov	#-24348,r13	;#0xa0e4
    5444:	02 3c       	jmp	$+6      	;abs 0x544a
    5446:	3d 40 e0 a0 	mov	#-24352,r13	;#0xa0e0
    544a:	6f 4d       	mov.b	@r13,	r15	
    544c:	7f f0 0f 00 	and.b	#15,	r15	;#0x000f
    5450:	c1 4f 00 00 	mov.b	r15,	0(r1)	;0x0000(r1)
    5454:	6b 4d       	mov.b	@r13,	r11	
    5456:	12 c3       	clrc			
    5458:	4b 10       	rrc.b	r11		
    545a:	12 c3       	clrc			
    545c:	4b 10       	rrc.b	r11		
    545e:	12 c3       	clrc			
    5460:	4b 10       	rrc.b	r11		
    5462:	12 c3       	clrc			
    5464:	4b 10       	rrc.b	r11		
    5466:	7b f0 07 00 	and.b	#7,	r11	;#0x0007
    546a:	5a 4d 01 00 	mov.b	1(r13),	r10	;0x0001(r13)
    546e:	7a f0 03 00 	and.b	#3,	r10	;#0x0003
    5472:	5c 4d 01 00 	mov.b	1(r13),	r12	;0x0001(r13)
    5476:	48 4c       	mov.b	r12,	r8	
    5478:	12 c3       	clrc			
    547a:	48 10       	rrc.b	r8		
    547c:	12 c3       	clrc			
    547e:	48 10       	rrc.b	r8		
    5480:	78 f0 07 00 	and.b	#7,	r8	;#0x0007
    5484:	4c 4c       	mov.b	r12,	r12	
    5486:	12 c3       	clrc			
    5488:	4c 10       	rrc.b	r12		
    548a:	12 c3       	clrc			
    548c:	4c 10       	rrc.b	r12		
    548e:	12 c3       	clrc			
    5490:	4c 10       	rrc.b	r12		
    5492:	12 c3       	clrc			
    5494:	4c 10       	rrc.b	r12		
    5496:	12 c3       	clrc			
    5498:	4c 10       	rrc.b	r12		
    549a:	59 4d 02 00 	mov.b	2(r13),	r9	;0x0002(r13)
    549e:	19 f3       	and	#1,	r9	;r3 As==01
    54a0:	09 59       	rla	r9		
    54a2:	09 59       	rla	r9		
    54a4:	09 59       	rla	r9		
    54a6:	4c d9       	bis.b	r9,	r12	
    54a8:	c1 4c 01 00 	mov.b	r12,	1(r1)	;0x0001(r1)
    54ac:	16 42 9e 14 	mov	&0x149e,r6	
    54b0:	15 42 d8 14 	mov	&0x14d8,r5	
    54b4:	19 42 dc 11 	mov	&0x11dc,r9	
    54b8:	44 93       	tst.b	r4		
    54ba:	c0 20       	jnz	$+386    	;abs 0x563c
    54bc:	09 93       	tst	r9		
    54be:	be 24       	jz	$+382    	;abs 0x563c
    54c0:	05 93       	tst	r5		
    54c2:	bc 24       	jz	$+378    	;abs 0x563c
    54c4:	16 93       	cmp	#1,	r6	;r3 As==01
    54c6:	ba 24       	jz	$+374    	;abs 0x563c
    54c8:	26 93       	cmp	#2,	r6	;r3 As==10
    54ca:	b8 24       	jz	$+370    	;abs 0x563c
    54cc:	b0 12 66 4d 	call	#0x4d66	
    54d0:	c1 4f 02 00 	mov.b	r15,	2(r1)	;0x0002(r1)
    54d4:	5e 42 38 13 	mov.b	&0x1338,r14	
    54d8:	3e f0 20 00 	and	#32,	r14	;#0x0020
    54dc:	03 24       	jz	$+8      	;abs 0x54e4
    54de:	b0 12 78 4d 	call	#0x4d78	
    54e2:	ac 3c       	jmp	$+346    	;abs 0x563c
    54e4:	e2 93 2e 11 	cmp.b	#2,	&0x112e	;r3 As==10
    54e8:	9c 20       	jnz	$+314    	;abs 0x5622
    54ea:	d2 93 06 11 	cmp.b	#1,	&0x1106	;r3 As==01
    54ee:	99 20       	jnz	$+308    	;abs 0x5622
    54f0:	35 90 11 00 	cmp	#17,	r5	;#0x0011
    54f4:	03 28       	jnc	$+8      	;abs 0x54fc
    54f6:	77 40 03 00 	mov.b	#3,	r7	;#0x0003
    54fa:	01 3c       	jmp	$+4      	;abs 0x54fe
    54fc:	57 43       	mov.b	#1,	r7	;r3 As==01
    54fe:	37 f0 03 00 	and	#3,	r7	;#0x0003
    5502:	07 57       	rla	r7		
    5504:	3a f0 03 00 	and	#3,	r10	;#0x0003
    5508:	0a 5a       	rla	r10		
    550a:	0a 5a       	rla	r10		
    550c:	0a 5a       	rla	r10		
    550e:	0d 48       	mov	r8,	r13	
    5510:	3d f0 07 00 	and	#7,	r13	;#0x0007
    5514:	0d 5d       	rla	r13		
    5516:	0d 5d       	rla	r13		
    5518:	0d 5d       	rla	r13		
    551a:	0d 5d       	rla	r13		
    551c:	0d 5d       	rla	r13		
    551e:	0a d7       	bis	r7,	r10	
    5520:	0a dd       	bis	r13,	r10	
    5522:	3a d0 00 02 	bis	#512,	r10	;#0x0200
    5526:	5d 43       	mov.b	#1,	r13	;r3 As==01
    5528:	06 93       	tst	r6		
    552a:	01 20       	jnz	$+4      	;abs 0x552e
    552c:	4d 43       	clr.b	r13		
    552e:	1d f3       	and	#1,	r13	;r3 As==01
    5530:	8d 10       	swpb	r13		
    5532:	0d 5d       	rla	r13		
    5534:	0d 5d       	rla	r13		
    5536:	3a f0 ff f3 	and	#-3073,	r10	;#0xf3ff
    553a:	0a dd       	bis	r13,	r10	
    553c:	7b f0 07 00 	and.b	#7,	r11	;#0x0007
    5540:	4b 5b       	rla.b	r11		
    5542:	4b 5b       	rla.b	r11		
    5544:	4b 5b       	rla.b	r11		
    5546:	4b 5b       	rla.b	r11		
    5548:	6b d1       	bis.b	@r1,	r11	
    554a:	b0 12 92 46 	call	#0x4692	
    554e:	0d 4f       	mov	r15,	r13	
    5550:	58 43       	mov.b	#1,	r8	;r3 As==01
    5552:	06 93       	tst	r6		
    5554:	01 24       	jz	$+4      	;abs 0x5558
    5556:	48 43       	clr.b	r8		
    5558:	18 f3       	and	#1,	r8	;r3 As==01
    555a:	77 40 07 00 	mov.b	#7,	r7	;#0x0007
    555e:	08 58       	rla	r8		
    5560:	77 53       	add.b	#-1,	r7	;r3 As==11
    5562:	fd 23       	jnz	$-4      	;abs 0x555e
    5564:	3d f0 7f ff 	and	#-129,	r13	;#0xff7f
    5568:	0d d8       	bis	r8,	r13	
    556a:	5c 41 01 00 	mov.b	1(r1),	r12	;0x0001(r1)
    556e:	0f 4c       	mov	r12,	r15	
    5570:	8f 10       	swpb	r15		
    5572:	3d f0 ff f0 	and	#-3841,	r13	;#0xf0ff
    5576:	0d df       	bis	r15,	r13	
    5578:	0c 4f       	mov	r15,	r12	
    557a:	0c 5c       	rla	r12		
    557c:	0c 5c       	rla	r12		
    557e:	0c 5c       	rla	r12		
    5580:	0c 5c       	rla	r12		
    5582:	3d f0 ff 0f 	and	#4095,	r13	;#0x0fff
    5586:	e2 42 38 13 	mov.b	#4,	&0x1338	;r2 As==10
    558a:	82 45 e0 11 	mov	r5,	&0x11e0	
    558e:	82 49 f8 12 	mov	r9,	&0x12f8	
    5592:	82 43 d6 11 	mov	#0,	&0x11d6	;r3 As==00
    5596:	0f 4d       	mov	r13,	r15	
    5598:	0f dc       	bis	r12,	r15	
    559a:	b0 12 8c 46 	call	#0x468c	
    559e:	0f 4a       	mov	r10,	r15	
    55a0:	b0 12 86 46 	call	#0x4686	
    55a4:	0a 43       	clr	r10		
    55a6:	35 53       	add	#-1,	r5	;r3 As==11
    55a8:	04 3c       	jmp	$+10     	;abs 0x55b2
    55aa:	4f 4a       	mov.b	r10,	r15	
    55ac:	b0 12 78 46 	call	#0x4678	
    55b0:	1a 53       	inc	r10		
    55b2:	4e 4b       	mov.b	r11,	r14	
    55b4:	0a 95       	cmp	r5,	r10	
    55b6:	03 2c       	jc	$+8      	;abs 0x55be
    55b8:	3a 90 0f 00 	cmp	#15,	r10	;#0x000f
    55bc:	f6 23       	jnz	$-18     	;abs 0x55aa
    55be:	7e d0 80 ff 	bis.b	#-128,	r14	;#0xff80
    55c2:	4f 4a       	mov.b	r10,	r15	
    55c4:	b0 12 78 46 	call	#0x4678	
    55c8:	1c 43       	mov	#1,	r12	;r3 As==01
    55ca:	7a f0 0f 00 	and.b	#15,	r10	;#0x000f
    55ce:	4a 93       	tst.b	r10		
    55d0:	03 24       	jz	$+8      	;abs 0x55d8
    55d2:	0c 5c       	rla	r12		
    55d4:	7a 53       	add.b	#-1,	r10	;r3 As==11
    55d6:	fb 3f       	jmp	$-8      	;abs 0x55ce
    55d8:	82 4c a6 01 	mov	r12,	&0x01a6	
    55dc:	06 93       	tst	r6		
    55de:	23 24       	jz	$+72     	;abs 0x5626
    55e0:	f2 d0 40 00 38 13 	bis.b	#64,	&0x1338	;#0x0040
    55e6:	0f 43       	clr	r15		
    55e8:	b0 12 4e 46 	call	#0x464e	
    55ec:	a2 d2 60 01 	bis	#4,	&0x0160	;r2 As==10
    55f0:	b2 f0 fd ff 60 01 	and	#-3,	&0x0160	;#0xfffd
    55f6:	1d 42 60 01 	mov	&0x0160,r13	
    55fa:	3d f0 ff fc 	and	#-769,	r13	;#0xfcff
    55fe:	3d d0 00 02 	bis	#512,	r13	;#0x0200
    5602:	82 4d 60 01 	mov	r13,	&0x0160	
    5606:	b2 f0 3f ff 60 01 	and	#-193,	&0x0160	;#0xff3f
    560c:	82 43 62 01 	mov	#0,	&0x0162	;r3 As==00
    5610:	0d 46       	mov	r6,	r13	
    5612:	3d 53       	add	#-1,	r13	;r3 As==11
    5614:	82 4d 72 01 	mov	r13,	&0x0172	
    5618:	12 c3       	clrc			
    561a:	0d 10       	rrc	r13		
    561c:	82 4d 74 01 	mov	r13,	&0x0174	
    5620:	02 3c       	jmp	$+6      	;abs 0x5626
    5622:	7b 42       	mov.b	#8,	r11	;r2 As==11
    5624:	01 3c       	jmp	$+4      	;abs 0x5628
    5626:	4b 43       	clr.b	r11		
    5628:	5f 41 02 00 	mov.b	2(r1),	r15	;0x0002(r1)
    562c:	b0 12 78 4d 	call	#0x4d78	
    5630:	4b 93       	tst.b	r11		
    5632:	04 20       	jnz	$+10     	;abs 0x563c
    5634:	5f 43       	mov.b	#1,	r15	;r3 As==01
    5636:	b0 12 d8 52 	call	#0x52d8	
    563a:	1e 3c       	jmp	$+62     	;abs 0x5678
    563c:	1a 42 d8 14 	mov	&0x14d8,r10	
    5640:	1b 42 dc 11 	mov	&0x11dc,r11	
    5644:	2a 92       	cmp	#4,	r10	;r2 As==10
    5646:	14 28       	jnc	$+42     	;abs 0x5670
    5648:	b0 12 66 4d 	call	#0x4d66	
    564c:	4e 44       	mov.b	r4,	r14	
    564e:	0e 5e       	rla	r14		
    5650:	3e 50 12 18 	add	#6162,	r14	;#0x1812
    5654:	2d 4e       	mov	@r14,	r13	
    5656:	0d 93       	tst	r13		
    5658:	09 24       	jz	$+20     	;abs 0x566c
    565a:	8b 4a 00 00 	mov	r10,	0(r11)	;0x0000(r11)
    565e:	8b 43 02 00 	mov	#0,	2(r11)	;r3 As==00, 0x0002(r11)
    5662:	8d 4b 00 00 	mov	r11,	0(r13)	;0x0000(r13)
    5666:	2b 53       	incd	r11		
    5668:	8e 4b 00 00 	mov	r11,	0(r14)	;0x0000(r14)
    566c:	b0 12 78 4d 	call	#0x4d78	
    5670:	7f 40 20 00 	mov.b	#32,	r15	;#0x0020
    5674:	b0 12 80 4d 	call	#0x4d80	
    5678:	21 52       	add	#4,	r1	;r2 As==10
    567a:	34 41       	pop	r4		
    567c:	35 41       	pop	r5		
    567e:	36 41       	pop	r6		
    5680:	37 41       	pop	r7		
    5682:	38 41       	pop	r8		
    5684:	39 41       	pop	r9		
    5686:	3a 41       	pop	r10		
    5688:	3b 41       	pop	r11		
    568a:	30 41       	ret			

0000568c <Msp430Adc12ImplP__SingleChannel__multipleDataReady.isra.224>:
    568c:	0b 12       	push	r11		
    568e:	0a 12       	push	r10		
    5690:	5f 93       	cmp.b	#1,	r15	;r3 As==01
    5692:	33 20       	jnz	$+104    	;abs 0x56fa
    5694:	82 93 d8 12 	tst	&0x12d8	
    5698:	0a 24       	jz	$+22     	;abs 0x56ae
    569a:	5f 42 04 11 	mov.b	&0x1104,r15	
    569e:	0f 5f       	rla	r15		
    56a0:	8f 43 12 18 	mov	#0,	6162(r15);r3 As==00, 0x1812(r15)
    56a4:	7f 40 20 00 	mov.b	#32,	r15	;#0x0020
    56a8:	b0 12 80 4d 	call	#0x4d80	
    56ac:	26 3c       	jmp	$+78     	;abs 0x56fa
    56ae:	1e 42 ba 17 	mov	&0x17ba,r14	
    56b2:	82 4e d8 12 	mov	r14,	&0x12d8	
    56b6:	1c 42 dc 11 	mov	&0x11dc,r12	
    56ba:	0f 4c       	mov	r12,	r15	
    56bc:	8f 10       	swpb	r15		
    56be:	8f 11       	sxt	r15		
    56c0:	8f 10       	swpb	r15		
    56c2:	8f 11       	sxt	r15		
    56c4:	0d 4f       	mov	r15,	r13	
    56c6:	0a 4e       	mov	r14,	r10	
    56c8:	0f 4e       	mov	r14,	r15	
    56ca:	8f 10       	swpb	r15		
    56cc:	8f 11       	sxt	r15		
    56ce:	8f 10       	swpb	r15		
    56d0:	8f 11       	sxt	r15		
    56d2:	0b 4f       	mov	r15,	r11	
    56d4:	0e 4c       	mov	r12,	r14	
    56d6:	0f 4d       	mov	r13,	r15	
    56d8:	0e 8a       	sub	r10,	r14	
    56da:	0f 7b       	subc	r11,	r15	
    56dc:	0f 11       	rra	r15		
    56de:	0e 10       	rrc	r14		
    56e0:	82 4e 20 18 	mov	r14,	&0x1820	
    56e4:	7f 40 21 00 	mov.b	#33,	r15	;#0x0021
    56e8:	b0 12 80 4d 	call	#0x4d80	
    56ec:	4f 43       	clr.b	r15		
    56ee:	b0 12 d2 51 	call	#0x51d2	
    56f2:	4f 93       	tst.b	r15		
    56f4:	02 20       	jnz	$+6      	;abs 0x56fa
    56f6:	b0 12 28 54 	call	#0x5428	
    56fa:	0f 43       	clr	r15		
    56fc:	3a 41       	pop	r10		
    56fe:	3b 41       	pop	r11		
    5700:	30 41       	ret			

00005702 <Msp430SpiNoDmaP__0__continueOp>:
    5702:	0b 12       	push	r11		
    5704:	b0 12 66 4d 	call	#0x4d66	
    5708:	1d 42 e0 12 	mov	&0x12e0,r13	
    570c:	1e 42 18 18 	mov	&0x1818,r14	
    5710:	0d 93       	tst	r13		
    5712:	03 24       	jz	$+8      	;abs 0x571a
    5714:	0d 5e       	add	r14,	r13	
    5716:	6d 4d       	mov.b	@r13,	r13	
    5718:	01 3c       	jmp	$+4      	;abs 0x571c
    571a:	4d 43       	clr.b	r13		
    571c:	c2 4d 77 00 	mov.b	r13,	&0x0077	
    5720:	6e 53       	incd.b	r14		
    5722:	1d 42 1c 18 	mov	&0x181c,r13	
    5726:	4c 4e       	mov.b	r14,	r12	
    5728:	0d 9c       	cmp	r12,	r13	
    572a:	1c 2c       	jc	$+58     	;abs 0x5764
    572c:	4e 4d       	mov.b	r13,	r14	
    572e:	1a 3c       	jmp	$+54     	;abs 0x5764
    5730:	5d 42 02 00 	mov.b	&0x0002,r13	
    5734:	3d f0 40 00 	and	#64,	r13	;#0x0040
    5738:	fb 27       	jz	$-8      	;abs 0x5730
    573a:	5b 42 76 00 	mov.b	&0x0076,r11	
    573e:	1d 42 a4 14 	mov	&0x14a4,r13	
    5742:	0d 93       	tst	r13		
    5744:	03 24       	jz	$+8      	;abs 0x574c
    5746:	0c 5d       	add	r13,	r12	
    5748:	cc 4b 00 00 	mov.b	r11,	0(r12)	;0x0000(r12)
    574c:	1d 42 e0 12 	mov	&0x12e0,r13	
    5750:	0d 93       	tst	r13		
    5752:	04 24       	jz	$+10     	;abs 0x575c
    5754:	1d 52 18 18 	add	&0x1818,r13	
    5758:	6d 4d       	mov.b	@r13,	r13	
    575a:	01 3c       	jmp	$+4      	;abs 0x575e
    575c:	4d 43       	clr.b	r13		
    575e:	c2 4d 77 00 	mov.b	r13,	&0x0077	
    5762:	01 3c       	jmp	$+4      	;abs 0x5766
    5764:	4e 4e       	mov.b	r14,	r14	
    5766:	1c 42 18 18 	mov	&0x1818,r12	
    576a:	0d 4c       	mov	r12,	r13	
    576c:	1d 53       	inc	r13		
    576e:	82 4d 18 18 	mov	r13,	&0x1818	
    5772:	0d 9e       	cmp	r14,	r13	
    5774:	dd 2b       	jnc	$-68     	;abs 0x5730
    5776:	b0 12 78 4d 	call	#0x4d78	
    577a:	3b 41       	pop	r11		
    577c:	30 41       	ret			

0000577e <CC2420SpiP__WorkingState__isIdle>:
    577e:	0b 12       	push	r11		
    5780:	b0 12 66 4d 	call	#0x4d66	
    5784:	5b 43       	mov.b	#1,	r11	;r3 As==01
    5786:	c2 93 f8 14 	tst.b	&0x14f8	
    578a:	01 24       	jz	$+4      	;abs 0x578e
    578c:	4b 43       	clr.b	r11		
    578e:	b0 12 78 4d 	call	#0x4d78	
    5792:	4f 4b       	mov.b	r11,	r15	
    5794:	3b 41       	pop	r11		
    5796:	30 41       	ret			

00005798 <CC2420SpiP__attemptRelease>:
    5798:	c2 93 64 11 	tst.b	&0x1164	
    579c:	39 20       	jnz	$+116    	;abs 0x5810
    579e:	f2 93 19 11 	cmp.b	#-1,	&0x1119	;r3 As==11
    57a2:	36 20       	jnz	$+110    	;abs 0x5810
    57a4:	b0 12 7e 57 	call	#0x577e	
    57a8:	4f 93       	tst.b	r15		
    57aa:	32 24       	jz	$+102    	;abs 0x5810
    57ac:	d2 43 8e 17 	mov.b	#1,	&0x178e	;r3 As==01
    57b0:	c2 93 e3 11 	tst.b	&0x11e3	
    57b4:	02 24       	jz	$+6      	;abs 0x57ba
    57b6:	c2 43 8e 17 	mov.b	#0,	&0x178e	;r3 As==00
    57ba:	c2 93 8e 17 	tst.b	&0x178e	
    57be:	2a 24       	jz	$+86     	;abs 0x5814
    57c0:	f2 90 03 00 62 11 	cmp.b	#3,	&0x1162	;#0x0003
    57c6:	29 20       	jnz	$+84     	;abs 0x581a
    57c8:	c2 93 16 11 	tst.b	&0x1116	
    57cc:	28 20       	jnz	$+82     	;abs 0x581e
    57ce:	5e 42 18 11 	mov.b	&0x1118,r14	
    57d2:	7e 93       	cmp.b	#-1,	r14	;r3 As==11
    57d4:	16 24       	jz	$+46     	;abs 0x5802
    57d6:	4f 4e       	mov.b	r14,	r15	
    57d8:	5d 4f e8 12 	mov.b	4840(r15),r13	;0x12e8(r15)
    57dc:	c2 4d 18 11 	mov.b	r13,	&0x1118	
    57e0:	7d 93       	cmp.b	#-1,	r13	;r3 As==11
    57e2:	02 20       	jnz	$+6      	;abs 0x57e8
    57e4:	f2 43 17 11 	mov.b	#-1,	&0x1117	;r3 As==11
    57e8:	ff 43 e8 12 	mov.b	#-1,	4840(r15);r3 As==11, 0x12e8(r15)
    57ec:	c2 4e 1c 15 	mov.b	r14,	&0x151c	
    57f0:	f2 43 16 11 	mov.b	#-1,	&0x1116	;r3 As==11
    57f4:	d2 43 62 11 	mov.b	#1,	&0x1162	;r3 As==01
    57f8:	7f 40 0b 00 	mov.b	#11,	r15	;#0x000b
    57fc:	b0 12 80 4d 	call	#0x4d80	
    5800:	04 3c       	jmp	$+10     	;abs 0x580a
    5802:	d2 43 16 11 	mov.b	#1,	&0x1116	;r3 As==01
    5806:	c2 43 62 11 	mov.b	#0,	&0x1162	;r3 As==00
    580a:	b0 12 66 4c 	call	#0x4c66	
    580e:	05 3c       	jmp	$+12     	;abs 0x581a
    5810:	5f 43       	mov.b	#1,	r15	;r3 As==01
    5812:	30 41       	ret			
    5814:	7f 40 05 00 	mov.b	#5,	r15	;#0x0005
    5818:	30 41       	ret			
    581a:	4f 43       	clr.b	r15		
    581c:	30 41       	ret			
    581e:	4f 43       	clr.b	r15		
    5820:	30 41       	ret			

00005822 <CC2420SpiP__Strobe__strobe>:
    5822:	0b 12       	push	r11		
    5824:	0a 12       	push	r10		
    5826:	4a 4f       	mov.b	r15,	r10	
    5828:	b0 12 66 4d 	call	#0x4d66	
    582c:	4b 4f       	mov.b	r15,	r11	
    582e:	b0 12 7e 57 	call	#0x577e	
    5832:	4f 93       	tst.b	r15		
    5834:	05 24       	jz	$+12     	;abs 0x5840
    5836:	4f 4b       	mov.b	r11,	r15	
    5838:	b0 12 78 4d 	call	#0x4d78	
    583c:	4f 43       	clr.b	r15		
    583e:	06 3c       	jmp	$+14     	;abs 0x584c
    5840:	4f 4b       	mov.b	r11,	r15	
    5842:	b0 12 78 4d 	call	#0x4d78	
    5846:	4f 4a       	mov.b	r10,	r15	
    5848:	b0 12 9e 46 	call	#0x469e	
    584c:	3a 41       	pop	r10		
    584e:	3b 41       	pop	r11		
    5850:	30 41       	ret			

00005852 <PowerCycleP__SplitControlState__isState>:
    5852:	0b 12       	push	r11		
    5854:	0a 12       	push	r10		
    5856:	4a 4f       	mov.b	r15,	r10	
    5858:	b0 12 66 4d 	call	#0x4d66	
    585c:	5b 43       	mov.b	#1,	r11	;r3 As==01
    585e:	5a 92 fc 14 	cmp.b	&0x14fc,r10	
    5862:	01 24       	jz	$+4      	;abs 0x5866
    5864:	4b 43       	clr.b	r11		
    5866:	b0 12 78 4d 	call	#0x4d78	
    586a:	4f 4b       	mov.b	r11,	r15	
    586c:	3a 41       	pop	r10		
    586e:	3b 41       	pop	r11		
    5870:	30 41       	ret			

00005872 <PowerCycleP__isDutyCycling>:
    5872:	82 93 4e 11 	tst	&0x114e	
    5876:	09 24       	jz	$+20     	;abs 0x588a
    5878:	6f 43       	mov.b	#2,	r15	;r3 As==10
    587a:	b0 12 52 58 	call	#0x5852	
    587e:	1e 43       	mov	#1,	r14	;r3 As==01
    5880:	4f 93       	tst.b	r15		
    5882:	01 20       	jnz	$+4      	;abs 0x5886
    5884:	0e 43       	clr	r14		
    5886:	0f 4e       	mov	r14,	r15	
    5888:	01 3c       	jmp	$+4      	;abs 0x588c
    588a:	0f 43       	clr	r15		
    588c:	4f 4f       	mov.b	r15,	r15	
    588e:	30 41       	ret			

00005890 <CC2420CsmaP__SplitControlState__isState>:
    5890:	0b 12       	push	r11		
    5892:	0a 12       	push	r10		
    5894:	4a 4f       	mov.b	r15,	r10	
    5896:	b0 12 66 4d 	call	#0x4d66	
    589a:	5b 43       	mov.b	#1,	r11	;r3 As==01
    589c:	5a 92 f9 14 	cmp.b	&0x14f9,r10	
    58a0:	01 24       	jz	$+4      	;abs 0x58a4
    58a2:	4b 43       	clr.b	r11		
    58a4:	b0 12 78 4d 	call	#0x4d78	
    58a8:	4f 4b       	mov.b	r11,	r15	
    58aa:	3a 41       	pop	r10		
    58ac:	3b 41       	pop	r11		
    58ae:	30 41       	ret			

000058b0 <Msp430GpioC__1__GeneralIO__clr>:
    58b0:	b0 12 66 4d 	call	#0x4d66	
    58b4:	f2 f0 fb ff 1d 00 	and.b	#-5,	&0x001d	;#0xfffb
    58ba:	b0 12 78 4d 	call	#0x4d78	
    58be:	30 41       	ret			

000058c0 <CC2420SpiP__SpiPacket__send.part.227>:
    58c0:	b0 12 66 4d 	call	#0x4d66	
    58c4:	f2 f0 bf ff 02 00 	and.b	#-65,	&0x0002	;#0xffbf
    58ca:	f2 d0 40 00 00 00 	bis.b	#64,	&0x0000	;#0x0040
    58d0:	b0 12 78 4d 	call	#0x4d78	
    58d4:	b0 12 02 57 	call	#0x5702	
    58d8:	30 41       	ret			

000058da <CC2420ReceiveP__RXFIFO__continueRead>:
    58da:	4e 4e       	mov.b	r14,	r14	
    58dc:	c2 43 f2 12 	mov.b	#0,	&0x12f2	;r3 As==00
    58e0:	82 43 e0 12 	mov	#0,	&0x12e0	;r3 As==00
    58e4:	82 4f a4 14 	mov	r15,	&0x14a4	
    58e8:	82 4e 1c 18 	mov	r14,	&0x181c	
    58ec:	82 43 18 18 	mov	#0,	&0x1818	;r3 As==00
    58f0:	0e 93       	tst	r14		
    58f2:	03 24       	jz	$+8      	;abs 0x58fa
    58f4:	b0 12 c0 58 	call	#0x58c0	
    58f8:	04 3c       	jmp	$+10     	;abs 0x5902
    58fa:	7f 40 0a 00 	mov.b	#10,	r15	;#0x000a
    58fe:	b0 12 80 4d 	call	#0x4d80	
    5902:	4f 43       	clr.b	r15		
    5904:	30 41       	ret			

00005906 <CC2420ReceiveP__RXFIFO__beginRead>:
    5906:	0b 12       	push	r11		
    5908:	0a 12       	push	r10		
    590a:	09 12       	push	r9		
    590c:	0a 4f       	mov	r15,	r10	
    590e:	49 4e       	mov.b	r14,	r9	
    5910:	b0 12 66 4d 	call	#0x4d66	
    5914:	4b 4f       	mov.b	r15,	r11	
    5916:	b0 12 7e 57 	call	#0x577e	
    591a:	4f 93       	tst.b	r15		
    591c:	05 24       	jz	$+12     	;abs 0x5928
    591e:	4f 4b       	mov.b	r11,	r15	
    5920:	b0 12 78 4d 	call	#0x4d78	
    5924:	4b 43       	clr.b	r11		
    5926:	1f 3c       	jmp	$+64     	;abs 0x5966
    5928:	4f 4b       	mov.b	r11,	r15	
    592a:	b0 12 78 4d 	call	#0x4d78	
    592e:	b2 40 7f 00 f4 12 	mov	#127,	&0x12f4	;#0x007f
    5934:	7f 40 7f 00 	mov.b	#127,	r15	;#0x007f
    5938:	b0 12 9e 46 	call	#0x469e	
    593c:	4b 4f       	mov.b	r15,	r11	
    593e:	4e 49       	mov.b	r9,	r14	
    5940:	c2 43 f2 12 	mov.b	#0,	&0x12f2	;r3 As==00
    5944:	82 43 e0 12 	mov	#0,	&0x12e0	;r3 As==00
    5948:	82 4a a4 14 	mov	r10,	&0x14a4	
    594c:	82 4e 1c 18 	mov	r14,	&0x181c	
    5950:	82 43 18 18 	mov	#0,	&0x1818	;r3 As==00
    5954:	0e 93       	tst	r14		
    5956:	03 24       	jz	$+8      	;abs 0x595e
    5958:	b0 12 c0 58 	call	#0x58c0	
    595c:	04 3c       	jmp	$+10     	;abs 0x5966
    595e:	7f 40 0a 00 	mov.b	#10,	r15	;#0x000a
    5962:	b0 12 80 4d 	call	#0x4d80	
    5966:	4f 4b       	mov.b	r11,	r15	
    5968:	39 41       	pop	r9		
    596a:	3a 41       	pop	r10		
    596c:	3b 41       	pop	r11		
    596e:	30 41       	ret			

00005970 <CC2420ReceiveP__receive>:
    5970:	b0 12 b0 58 	call	#0x58b0	
    5974:	5e 43       	mov.b	#1,	r14	;r3 As==01
    5976:	1f 42 74 11 	mov	&0x1174,r15	
    597a:	b0 12 06 59 	call	#0x5906	
    597e:	30 41       	ret			

00005980 <CC2420TransmitP__Send__sendDone.isra.232>:
    5980:	0b 12       	push	r11		
    5982:	4b 4f       	mov.b	r15,	r11	
    5984:	b0 12 66 4d 	call	#0x4d66	
    5988:	c2 4b 68 11 	mov.b	r11,	&0x1168	
    598c:	b0 12 78 4d 	call	#0x4d78	
    5990:	7f 40 06 00 	mov.b	#6,	r15	;#0x0006
    5994:	b0 12 80 4d 	call	#0x4d80	
    5998:	3b 41       	pop	r11		
    599a:	30 41       	ret			

0000599c <CC2420TransmitP__signalDone>:
    599c:	0b 12       	push	r11		
    599e:	4b 4f       	mov.b	r15,	r11	
    59a0:	92 43 54 11 	mov	#1,	&0x1154	;r3 As==01
    59a4:	c2 43 e3 11 	mov.b	#0,	&0x11e3	;r3 As==00
    59a8:	b0 12 98 57 	call	#0x5798	
    59ac:	4f 4b       	mov.b	r11,	r15	
    59ae:	b0 12 80 59 	call	#0x5980	
    59b2:	3b 41       	pop	r11		
    59b4:	30 41       	ret			

000059b6 <StateImplP__State__requestState>:
    59b6:	0b 12       	push	r11		
    59b8:	0a 12       	push	r10		
    59ba:	4a 4f       	mov.b	r15,	r10	
    59bc:	4b 4e       	mov.b	r14,	r11	
    59be:	b0 12 66 4d 	call	#0x4d66	
    59c2:	4d 4f       	mov.b	r15,	r13	
    59c4:	4b 93       	tst.b	r11		
    59c6:	04 24       	jz	$+10     	;abs 0x59d0
    59c8:	4c 4a       	mov.b	r10,	r12	
    59ca:	cc 93 f8 14 	tst.b	5368(r12)	;0x14f8(r12)
    59ce:	05 20       	jnz	$+12     	;abs 0x59da
    59d0:	4f 4a       	mov.b	r10,	r15	
    59d2:	cf 4b f8 14 	mov.b	r11,	5368(r15);0x14f8(r15)
    59d6:	4b 43       	clr.b	r11		
    59d8:	01 3c       	jmp	$+4      	;abs 0x59dc
    59da:	5b 43       	mov.b	#1,	r11	;r3 As==01
    59dc:	4f 4d       	mov.b	r13,	r15	
    59de:	b0 12 78 4d 	call	#0x4d78	
    59e2:	4f 4b       	mov.b	r11,	r15	
    59e4:	3a 41       	pop	r10		
    59e6:	3b 41       	pop	r11		
    59e8:	30 41       	ret			

000059ea <StateImplP__State__toIdle>:
    59ea:	0b 12       	push	r11		
    59ec:	4b 4f       	mov.b	r15,	r11	
    59ee:	b0 12 66 4d 	call	#0x4d66	
    59f2:	4e 4b       	mov.b	r11,	r14	
    59f4:	ce 43 f8 14 	mov.b	#0,	5368(r14);r3 As==00, 0x14f8(r14)
    59f8:	b0 12 78 4d 	call	#0x4d78	
    59fc:	3b 41       	pop	r11		
    59fe:	30 41       	ret			

00005a00 <CC2420SpiP__Resource__request>:
    5a00:	0b 12       	push	r11		
    5a02:	0a 12       	push	r10		
    5a04:	4b 4f       	mov.b	r15,	r11	
    5a06:	b0 12 66 4d 	call	#0x4d66	
    5a0a:	4a 4f       	mov.b	r15,	r10	
    5a0c:	5e 43       	mov.b	#1,	r14	;r3 As==01
    5a0e:	4f 43       	clr.b	r15		
    5a10:	b0 12 b6 59 	call	#0x59b6	
    5a14:	4f 93       	tst.b	r15		
    5a16:	2f 20       	jnz	$+96     	;abs 0x5a76
    5a18:	c2 4b 19 11 	mov.b	r11,	&0x1119	
    5a1c:	c2 93 16 11 	tst.b	&0x1116	
    5a20:	3c 20       	jnz	$+122    	;abs 0x5a9a
    5a22:	f2 90 03 00 62 11 	cmp.b	#3,	&0x1162	;#0x0003
    5a28:	38 20       	jnz	$+114    	;abs 0x5a9a
    5a2a:	7f 40 09 00 	mov.b	#9,	r15	;#0x0009
    5a2e:	b0 12 80 4d 	call	#0x4d80	
    5a32:	2c 3c       	jmp	$+90     	;abs 0x5a8c
    5a34:	d2 43 62 11 	mov.b	#1,	&0x1162	;r3 As==01
    5a38:	c2 43 1c 15 	mov.b	#0,	&0x151c	;r3 As==00
    5a3c:	b0 12 cc 4d 	call	#0x4dcc	
    5a40:	25 3c       	jmp	$+76     	;abs 0x5a8c
    5a42:	c2 93 1c 15 	tst.b	&0x151c	
    5a46:	22 24       	jz	$+70     	;abs 0x5a8c
    5a48:	1e 43       	mov	#1,	r14	;r3 As==01
    5a4a:	f2 93 e8 12 	cmp.b	#-1,	&0x12e8	;r3 As==11
    5a4e:	04 20       	jnz	$+10     	;abs 0x5a58
    5a50:	c2 93 17 11 	tst.b	&0x1117	
    5a54:	01 24       	jz	$+4      	;abs 0x5a58
    5a56:	0e 43       	clr	r14		
    5a58:	0e 93       	tst	r14		
    5a5a:	18 20       	jnz	$+50     	;abs 0x5a8c
    5a5c:	f2 93 18 11 	cmp.b	#-1,	&0x1118	;r3 As==11
    5a60:	03 20       	jnz	$+8      	;abs 0x5a68
    5a62:	c2 43 18 11 	mov.b	#0,	&0x1118	;r3 As==00
    5a66:	04 3c       	jmp	$+10     	;abs 0x5a70
    5a68:	5e 42 17 11 	mov.b	&0x1117,r14	
    5a6c:	ce 43 e8 12 	mov.b	#0,	4840(r14);r3 As==00, 0x12e8(r14)
    5a70:	c2 43 17 11 	mov.b	#0,	&0x1117	;r3 As==00
    5a74:	0b 3c       	jmp	$+24     	;abs 0x5a8c
    5a76:	1e 43       	mov	#1,	r14	;r3 As==01
    5a78:	4d 4b       	mov.b	r11,	r13	
    5a7a:	7d f0 0f 00 	and.b	#15,	r13	;#0x000f
    5a7e:	4d 93       	tst.b	r13		
    5a80:	03 24       	jz	$+8      	;abs 0x5a88
    5a82:	0e 5e       	rla	r14		
    5a84:	7d 53       	add.b	#-1,	r13	;r3 As==11
    5a86:	fb 3f       	jmp	$-8      	;abs 0x5a7e
    5a88:	c2 de 64 11 	bis.b	r14,	&0x1164	
    5a8c:	4f 4a       	mov.b	r10,	r15	
    5a8e:	b0 12 78 4d 	call	#0x4d78	
    5a92:	4f 43       	clr.b	r15		
    5a94:	3a 41       	pop	r10		
    5a96:	3b 41       	pop	r11		
    5a98:	30 41       	ret			
    5a9a:	c2 93 62 11 	tst.b	&0x1162	
    5a9e:	d1 23       	jnz	$-92     	;abs 0x5a42
    5aa0:	c9 3f       	jmp	$-108    	;abs 0x5a34

00005aa2 <Msp430GpioC__1__GeneralIO__set>:
    5aa2:	b0 12 66 4d 	call	#0x4d66	
    5aa6:	e2 d2 1d 00 	bis.b	#4,	&0x001d	;r2 As==10
    5aaa:	b0 12 78 4d 	call	#0x4d78	
    5aae:	30 41       	ret			

00005ab0 <CC2420SpiP__Resource__release>:
    5ab0:	0b 12       	push	r11		
    5ab2:	0a 12       	push	r10		
    5ab4:	09 12       	push	r9		
    5ab6:	4b 4f       	mov.b	r15,	r11	
    5ab8:	b0 12 66 4d 	call	#0x4d66	
    5abc:	4a 4f       	mov.b	r15,	r10	
    5abe:	c2 9b 19 11 	cmp.b	r11,	&0x1119	
    5ac2:	04 24       	jz	$+10     	;abs 0x5acc
    5ac4:	b0 12 78 4d 	call	#0x4d78	
    5ac8:	5f 43       	mov.b	#1,	r15	;r3 As==01
    5aca:	49 3c       	jmp	$+148    	;abs 0x5b5e
    5acc:	f2 43 19 11 	mov.b	#-1,	&0x1119	;r3 As==11
    5ad0:	5b 42 64 11 	mov.b	&0x1164,r11	
    5ad4:	4b 93       	tst.b	r11		
    5ad6:	06 20       	jnz	$+14     	;abs 0x5ae4
    5ad8:	4f 43       	clr.b	r15		
    5ada:	b0 12 ea 59 	call	#0x59ea	
    5ade:	b0 12 98 57 	call	#0x5798	
    5ae2:	35 3c       	jmp	$+108    	;abs 0x5b4e
    5ae4:	4c 43       	clr.b	r12		
    5ae6:	49 4b       	mov.b	r11,	r9	
    5ae8:	02 12       	push	r2		
    5aea:	32 c2       	dint			
    5aec:	03 43       	nop			
    5aee:	c2 4c 30 01 	mov.b	r12,	&0x0130	
    5af2:	f2 40 cd ff 38 01 	mov.b	#-51,	&0x0138	;#0xffcd
    5af8:	1e 42 3a 01 	mov	&0x013a,r14	
    5afc:	32 41       	pop	r2		
    5afe:	8e 10       	swpb	r14		
    5b00:	12 c3       	clrc			
    5b02:	4e 10       	rrc.b	r14		
    5b04:	12 c3       	clrc			
    5b06:	4e 10       	rrc.b	r14		
    5b08:	4d 4e       	mov.b	r14,	r13	
    5b0a:	4d 5d       	rla.b	r13		
    5b0c:	4d 5d       	rla.b	r13		
    5b0e:	4e 5d       	add.b	r13,	r14	
    5b10:	4c 8e       	sub.b	r14,	r12	
    5b12:	4e 4c       	mov.b	r12,	r14	
    5b14:	4f 4c       	mov.b	r12,	r15	
    5b16:	0d 49       	mov	r9,	r13	
    5b18:	7c f0 0f 00 	and.b	#15,	r12	;#0x000f
    5b1c:	4c 93       	tst.b	r12		
    5b1e:	03 24       	jz	$+8      	;abs 0x5b26
    5b20:	0d 11       	rra	r13		
    5b22:	7c 53       	add.b	#-1,	r12	;r3 As==11
    5b24:	fb 3f       	jmp	$-8      	;abs 0x5b1c
    5b26:	1d f3       	and	#1,	r13	;r3 As==01
    5b28:	17 24       	jz	$+48     	;abs 0x5b58
    5b2a:	c2 4e 19 11 	mov.b	r14,	&0x1119	
    5b2e:	1e 43       	mov	#1,	r14	;r3 As==01
    5b30:	4d 4f       	mov.b	r15,	r13	
    5b32:	7d f0 0f 00 	and.b	#15,	r13	;#0x000f
    5b36:	4d 93       	tst.b	r13		
    5b38:	03 24       	jz	$+8      	;abs 0x5b40
    5b3a:	0e 5e       	rla	r14		
    5b3c:	7d 53       	add.b	#-1,	r13	;r3 As==11
    5b3e:	fb 3f       	jmp	$-8      	;abs 0x5b36
    5b40:	4b ce       	bic.b	r14,	r11	
    5b42:	c2 4b 64 11 	mov.b	r11,	&0x1164	
    5b46:	7f 40 09 00 	mov.b	#9,	r15	;#0x0009
    5b4a:	b0 12 80 4d 	call	#0x4d80	
    5b4e:	4f 4a       	mov.b	r10,	r15	
    5b50:	b0 12 78 4d 	call	#0x4d78	
    5b54:	4f 43       	clr.b	r15		
    5b56:	03 3c       	jmp	$+8      	;abs 0x5b5e
    5b58:	4c 4e       	mov.b	r14,	r12	
    5b5a:	5c 53       	inc.b	r12		
    5b5c:	c5 3f       	jmp	$-116    	;abs 0x5ae8
    5b5e:	39 41       	pop	r9		
    5b60:	3a 41       	pop	r10		
    5b62:	3b 41       	pop	r11		
    5b64:	30 41       	ret			

00005b66 <CC2420TransmitP__releaseSpiResource>:
    5b66:	7f 40 03 00 	mov.b	#3,	r15	;#0x0003
    5b6a:	b0 12 b0 5a 	call	#0x5ab0	
    5b6e:	4f 43       	clr.b	r15		
    5b70:	30 41       	ret			

00005b72 <RandomMlcgC__Random__rand32>:
    5b72:	0b 12       	push	r11		
    5b74:	0a 12       	push	r10		
    5b76:	09 12       	push	r9		
    5b78:	08 12       	push	r8		
    5b7a:	07 12       	push	r7		
    5b7c:	06 12       	push	r6		
    5b7e:	05 12       	push	r5		
    5b80:	b0 12 66 4d 	call	#0x4d66	
    5b84:	45 4f       	mov.b	r15,	r5	
    5b86:	3c 40 4e 83 	mov	#-31922,r12	;#0x834e
    5b8a:	0d 43       	clr	r13		
    5b8c:	1e 42 d2 12 	mov	&0x12d2,r14	
    5b90:	1f 42 d4 12 	mov	&0x12d4,r15	
    5b94:	b0 12 40 9d 	call	#0x9d40	
    5b98:	07 4d       	mov	r13,	r7	
    5b9a:	08 4e       	mov	r14,	r8	
    5b9c:	09 4f       	mov	r15,	r9	
    5b9e:	0e 4c       	mov	r12,	r14	
    5ba0:	0f 47       	mov	r7,	r15	
    5ba2:	12 c3       	clrc			
    5ba4:	0f 10       	rrc	r15		
    5ba6:	0e 10       	rrc	r14		
    5ba8:	08 5e       	add	r14,	r8	
    5baa:	09 6f       	addc	r15,	r9	
    5bac:	09 93       	tst	r9		
    5bae:	05 34       	jge	$+12     	;abs 0x5bba
    5bb0:	38 f3       	and	#-1,	r8	;r3 As==11
    5bb2:	39 f0 ff 7f 	and	#32767,	r9	;#0x7fff
    5bb6:	18 53       	inc	r8		
    5bb8:	09 63       	adc	r9		
    5bba:	82 48 d2 12 	mov	r8,	&0x12d2	
    5bbe:	82 49 d4 12 	mov	r9,	&0x12d4	
    5bc2:	4f 45       	mov.b	r5,	r15	
    5bc4:	b0 12 78 4d 	call	#0x4d78	
    5bc8:	0e 48       	mov	r8,	r14	
    5bca:	0f 49       	mov	r9,	r15	
    5bcc:	35 41       	pop	r5		
    5bce:	36 41       	pop	r6		
    5bd0:	37 41       	pop	r7		
    5bd2:	38 41       	pop	r8		
    5bd4:	39 41       	pop	r9		
    5bd6:	3a 41       	pop	r10		
    5bd8:	3b 41       	pop	r11		
    5bda:	30 41       	ret			

00005bdc <CC2420TransmitP__RadioBackoff__requestInitialBackoff>:
    5bdc:	0b 12       	push	r11		
    5bde:	0b 4f       	mov	r15,	r11	
    5be0:	b0 12 72 5b 	call	#0x5b72	
    5be4:	0f 4e       	mov	r14,	r15	
    5be6:	3e 40 36 01 	mov	#310,	r14	;#0x0136
    5bea:	b0 12 06 9e 	call	#0x9e06	
    5bee:	3f 50 0b 00 	add	#11,	r15	;#0x000b
    5bf2:	82 4f d2 11 	mov	r15,	&0x11d2	
    5bf6:	5e 4b 32 00 	mov.b	50(r11),r14	;0x0032(r11)
    5bfa:	8e 10       	swpb	r14		
    5bfc:	5f 4b 33 00 	mov.b	51(r11),r15	;0x0033(r11)
    5c00:	0e df       	bis	r15,	r14	
    5c02:	0e 93       	tst	r14		
    5c04:	0b 24       	jz	$+24     	;abs 0x5c1c
    5c06:	b0 12 72 5b 	call	#0x5b72	
    5c0a:	0f 4e       	mov	r14,	r15	
    5c0c:	3e 40 28 00 	mov	#40,	r14	;#0x0028
    5c10:	b0 12 06 9e 	call	#0x9e06	
    5c14:	3f 50 0b 00 	add	#11,	r15	;#0x000b
    5c18:	82 4f d2 11 	mov	r15,	&0x11d2	
    5c1c:	3b 41       	pop	r11		
    5c1e:	30 41       	ret			

00005c20 <CtpForwardingEngineP__0__startRetxmitTimer>:
    5c20:	0b 12       	push	r11		
    5c22:	0a 12       	push	r10		
    5c24:	0a 4f       	mov	r15,	r10	
    5c26:	0b 4e       	mov	r14,	r11	
    5c28:	b0 12 72 5b 	call	#0x5b72	
    5c2c:	0f 4e       	mov	r14,	r15	
    5c2e:	0e 4a       	mov	r10,	r14	
    5c30:	b0 12 06 9e 	call	#0x9e06	
    5c34:	0d 4f       	mov	r15,	r13	
    5c36:	0d 5b       	add	r11,	r13	
    5c38:	0e 43       	clr	r14		
    5c3a:	7f 42       	mov.b	#8,	r15	;r2 As==11
    5c3c:	b0 12 a6 4f 	call	#0x4fa6	
    5c40:	3a 41       	pop	r10		
    5c42:	3b 41       	pop	r11		
    5c44:	30 41       	ret			

00005c46 <TrickleTimerImplP__0__generateTime>:
    5c46:	0b 12       	push	r11		
    5c48:	0a 12       	push	r10		
    5c4a:	09 12       	push	r9		
    5c4c:	08 12       	push	r8		
    5c4e:	07 12       	push	r7		
    5c50:	4f 4f       	mov.b	r15,	r15	
    5c52:	0e 4f       	mov	r15,	r14	
    5c54:	0e 5e       	rla	r14		
    5c56:	0e 5f       	add	r15,	r14	
    5c58:	0e 5e       	rla	r14		
    5c5a:	0e 5e       	rla	r14		
    5c5c:	3e 50 7a 11 	add	#4474,	r14	;#0x117a
    5c60:	2e 53       	incd	r14		
    5c62:	8e 93 00 00 	tst	0(r14)		;0x0000(r14)
    5c66:	03 20       	jnz	$+8      	;abs 0x5c6e
    5c68:	8e 93 02 00 	tst	2(r14)		;0x0002(r14)
    5c6c:	11 24       	jz	$+36     	;abs 0x5c90
    5c6e:	0e 4f       	mov	r15,	r14	
    5c70:	0e 5e       	rla	r14		
    5c72:	0e 5f       	add	r15,	r14	
    5c74:	0e 5e       	rla	r14		
    5c76:	0e 5e       	rla	r14		
    5c78:	3e 50 7a 11 	add	#4474,	r14	;#0x117a
    5c7c:	2d 4e       	mov	@r14,	r13	
    5c7e:	0d 5d       	rla	r13		
    5c80:	8e 4d 00 00 	mov	r13,	0(r14)	;0x0000(r14)
    5c84:	3d 90 01 04 	cmp	#1025,	r13	;#0x0401
    5c88:	03 28       	jnc	$+8      	;abs 0x5c90
    5c8a:	be 40 00 04 00 00 	mov	#1024,	0(r14)	;#0x0400, 0x0000(r14)
    5c90:	0e 4f       	mov	r15,	r14	
    5c92:	0e 5e       	rla	r14		
    5c94:	0f 5e       	add	r14,	r15	
    5c96:	0f 5f       	rla	r15		
    5c98:	0f 5f       	rla	r15		
    5c9a:	08 4f       	mov	r15,	r8	
    5c9c:	38 50 7a 11 	add	#4474,	r8	;#0x117a
    5ca0:	07 48       	mov	r8,	r7	
    5ca2:	37 50 06 00 	add	#6,	r7	;#0x0006
    5ca6:	09 48       	mov	r8,	r9	
    5ca8:	29 53       	incd	r9		
    5caa:	a9 47 00 00 	mov	@r7,	0(r9)	;0x0000(r9)
    5cae:	99 47 02 00 02 00 	mov	2(r7),	2(r9)	;0x0002(r7), 0x0002(r9)
    5cb4:	2a 48       	mov	@r8,	r10	
    5cb6:	0b 43       	clr	r11		
    5cb8:	4b ea       	xor.b	r10,	r11	
    5cba:	0b ea       	xor	r10,	r11	
    5cbc:	8b 10       	swpb	r11		
    5cbe:	4a 4a       	mov.b	r10,	r10	
    5cc0:	8a 10       	swpb	r10		
    5cc2:	0a 5a       	rla	r10		
    5cc4:	0b 6b       	rlc	r11		
    5cc6:	b0 12 72 5b 	call	#0x5b72	
    5cca:	0f 4e       	mov	r14,	r15	
    5ccc:	28 48       	mov	@r8,	r8	
    5cce:	4e 48       	mov.b	r8,	r14	
    5cd0:	8e 10       	swpb	r14		
    5cd2:	0e 5e       	rla	r14		
    5cd4:	b0 12 06 9e 	call	#0x9e06	
    5cd8:	0c 4f       	mov	r15,	r12	
    5cda:	0d 43       	clr	r13		
    5cdc:	0a 5c       	add	r12,	r10	
    5cde:	0b 6d       	addc	r13,	r11	
    5ce0:	0f 43       	clr	r15		
    5ce2:	4f e8       	xor.b	r8,	r15	
    5ce4:	0f e8       	xor	r8,	r15	
    5ce6:	8f 10       	swpb	r15		
    5ce8:	4e 48       	mov.b	r8,	r14	
    5cea:	8e 10       	swpb	r14		
    5cec:	0e 5e       	rla	r14		
    5cee:	0f 6f       	rlc	r15		
    5cf0:	0e 5e       	rla	r14		
    5cf2:	0f 6f       	rlc	r15		
    5cf4:	0c 4e       	mov	r14,	r12	
    5cf6:	0d 4f       	mov	r15,	r13	
    5cf8:	0c 8a       	sub	r10,	r12	
    5cfa:	0d 7b       	subc	r11,	r13	
    5cfc:	87 4c 00 00 	mov	r12,	0(r7)	;0x0000(r7)
    5d00:	87 4d 02 00 	mov	r13,	2(r7)	;0x0002(r7)
    5d04:	89 5a 00 00 	add	r10,	0(r9)	;0x0000(r9)
    5d08:	89 6b 02 00 	addc	r11,	2(r9)	;0x0002(r9)
    5d0c:	37 41       	pop	r7		
    5d0e:	38 41       	pop	r8		
    5d10:	39 41       	pop	r9		
    5d12:	3a 41       	pop	r10		
    5d14:	3b 41       	pop	r11		
    5d16:	30 41       	ret			

00005d18 <CtpRoutingEngineP__0__chooseAdvertiseTime>:
    5d18:	0b 12       	push	r11		
    5d1a:	0a 12       	push	r10		
    5d1c:	92 42 08 11 88 12 	mov	&0x1108,&0x1288	
    5d22:	92 42 0a 11 8a 12 	mov	&0x110a,&0x128a	
    5d28:	12 c3       	clrc			
    5d2a:	12 10 8a 12 	rrc	&0x128a	
    5d2e:	12 10 88 12 	rrc	&0x1288	
    5d32:	b0 12 72 5b 	call	#0x5b72	
    5d36:	1a 42 88 12 	mov	&0x1288,r10	
    5d3a:	1b 42 8a 12 	mov	&0x128a,r11	
    5d3e:	0c 4a       	mov	r10,	r12	
    5d40:	0d 4b       	mov	r11,	r13	
    5d42:	b0 12 7e 9e 	call	#0x9e7e	
    5d46:	0d 4e       	mov	r14,	r13	
    5d48:	0e 4f       	mov	r15,	r14	
    5d4a:	0d 5a       	add	r10,	r13	
    5d4c:	0e 6b       	addc	r11,	r14	
    5d4e:	82 4d 88 12 	mov	r13,	&0x1288	
    5d52:	82 4e 8a 12 	mov	r14,	&0x128a	
    5d56:	c2 43 aa 17 	mov.b	#0,	&0x17aa	;r3 As==00
    5d5a:	7f 40 06 00 	mov.b	#6,	r15	;#0x0006
    5d5e:	b0 12 a6 4f 	call	#0x4fa6	
    5d62:	3a 41       	pop	r10		
    5d64:	3b 41       	pop	r11		
    5d66:	30 41       	ret			

00005d68 <CtpRoutingEngineP__0__resetInterval>:
    5d68:	b2 40 80 00 08 11 	mov	#128,	&0x1108	;#0x0080
    5d6e:	82 43 0a 11 	mov	#0,	&0x110a	;r3 As==00
    5d72:	b0 12 18 5d 	call	#0x5d18	
    5d76:	30 41       	ret			

00005d78 <TransformAlarmC__0__Counter__get>:
    5d78:	0b 12       	push	r11		
    5d7a:	0a 12       	push	r10		
    5d7c:	09 12       	push	r9		
    5d7e:	b0 12 66 4d 	call	#0x4d66	
    5d82:	49 4f       	mov.b	r15,	r9	
    5d84:	1b 42 42 13 	mov	&0x1342,r11	
    5d88:	b0 12 22 47 	call	#0x4722	
    5d8c:	0a 4f       	mov	r15,	r10	
    5d8e:	1f 42 80 01 	mov	&0x0180,r15	
    5d92:	5f f3       	and.b	#1,	r15	;r3 As==01
    5d94:	04 24       	jz	$+10     	;abs 0x5d9e
    5d96:	1b 53       	inc	r11		
    5d98:	b0 12 22 47 	call	#0x4722	
    5d9c:	0a 4f       	mov	r15,	r10	
    5d9e:	0c 43       	clr	r12		
    5da0:	0d 43       	clr	r13		
    5da2:	0d 4b       	mov	r11,	r13	
    5da4:	0e 4a       	mov	r10,	r14	
    5da6:	0f 43       	clr	r15		
    5da8:	0a 4c       	mov	r12,	r10	
    5daa:	0b 4d       	mov	r13,	r11	
    5dac:	0a de       	bis	r14,	r10	
    5dae:	0b df       	bis	r15,	r11	
    5db0:	4f 49       	mov.b	r9,	r15	
    5db2:	b0 12 78 4d 	call	#0x4d78	
    5db6:	0e 4a       	mov	r10,	r14	
    5db8:	0f 4b       	mov	r11,	r15	
    5dba:	39 41       	pop	r9		
    5dbc:	3a 41       	pop	r10		
    5dbe:	3b 41       	pop	r11		
    5dc0:	30 41       	ret			

00005dc2 <TransformAlarmC__0__set_alarm>:
    5dc2:	0b 12       	push	r11		
    5dc4:	0a 12       	push	r10		
    5dc6:	09 12       	push	r9		
    5dc8:	08 12       	push	r8		
    5dca:	b0 12 78 5d 	call	#0x5d78	
    5dce:	08 4e       	mov	r14,	r8	
    5dd0:	09 4f       	mov	r15,	r9	
    5dd2:	1e 42 ea 12 	mov	&0x12ea,r14	
    5dd6:	1f 42 ec 12 	mov	&0x12ec,r15	
    5dda:	0a 4e       	mov	r14,	r10	
    5ddc:	0b 4f       	mov	r15,	r11	
    5dde:	1a 52 e2 12 	add	&0x12e2,r10	
    5de2:	1b 62 e4 12 	addc	&0x12e4,r11	
    5de6:	09 9f       	cmp	r15,	r9	
    5de8:	09 28       	jnc	$+20     	;abs 0x5dfc
    5dea:	02 20       	jnz	$+6      	;abs 0x5df0
    5dec:	08 9e       	cmp	r14,	r8	
    5dee:	06 28       	jnc	$+14     	;abs 0x5dfc
    5df0:	0b 9f       	cmp	r15,	r11	
    5df2:	10 28       	jnc	$+34     	;abs 0x5e14
    5df4:	09 20       	jnz	$+20     	;abs 0x5e08
    5df6:	0a 9e       	cmp	r14,	r10	
    5df8:	0d 28       	jnc	$+28     	;abs 0x5e14
    5dfa:	06 3c       	jmp	$+14     	;abs 0x5e08
    5dfc:	0b 9f       	cmp	r15,	r11	
    5dfe:	04 28       	jnc	$+10     	;abs 0x5e08
    5e00:	0f 9b       	cmp	r11,	r15	
    5e02:	27 28       	jnc	$+80     	;abs 0x5e52
    5e04:	0a 9e       	cmp	r14,	r10	
    5e06:	25 2c       	jc	$+76     	;abs 0x5e52
    5e08:	09 9b       	cmp	r11,	r9	
    5e0a:	04 28       	jnc	$+10     	;abs 0x5e14
    5e0c:	0b 99       	cmp	r9,	r11	
    5e0e:	21 28       	jnc	$+68     	;abs 0x5e52
    5e10:	08 9a       	cmp	r10,	r8	
    5e12:	1f 2c       	jc	$+64     	;abs 0x5e52
    5e14:	0c 4a       	mov	r10,	r12	
    5e16:	0d 4b       	mov	r11,	r13	
    5e18:	0c 88       	sub	r8,	r12	
    5e1a:	0d 79       	subc	r9,	r13	
    5e1c:	0d 93       	tst	r13		
    5e1e:	03 20       	jnz	$+8      	;abs 0x5e26
    5e20:	3c 90 01 80 	cmp	#-32767,r12	;#0x8001
    5e24:	18 28       	jnc	$+50     	;abs 0x5e56
    5e26:	0e 48       	mov	r8,	r14	
    5e28:	0f 49       	mov	r9,	r15	
    5e2a:	3e 50 00 80 	add	#-32768,r14	;#0x8000
    5e2e:	0f 63       	adc	r15		
    5e30:	82 4e ea 12 	mov	r14,	&0x12ea	
    5e34:	82 4f ec 12 	mov	r15,	&0x12ec	
    5e38:	0e 4c       	mov	r12,	r14	
    5e3a:	0f 4d       	mov	r13,	r15	
    5e3c:	3e 50 00 80 	add	#-32768,r14	;#0x8000
    5e40:	3f 63       	addc	#-1,	r15	;r3 As==11
    5e42:	82 4e e2 12 	mov	r14,	&0x12e2	
    5e46:	82 4f e4 12 	mov	r15,	&0x12e4	
    5e4a:	3c 40 00 80 	mov	#-32768,r12	;#0x8000
    5e4e:	0d 43       	clr	r13		
    5e50:	0a 3c       	jmp	$+22     	;abs 0x5e66
    5e52:	0c 43       	clr	r12		
    5e54:	0d 43       	clr	r13		
    5e56:	82 4a ea 12 	mov	r10,	&0x12ea	
    5e5a:	82 4b ec 12 	mov	r11,	&0x12ec	
    5e5e:	82 43 e2 12 	mov	#0,	&0x12e2	;r3 As==00
    5e62:	82 43 e4 12 	mov	#0,	&0x12e4	;r3 As==00
    5e66:	0a 4c       	mov	r12,	r10	
    5e68:	b0 12 22 47 	call	#0x4722	
    5e6c:	0e 4f       	mov	r15,	r14	
    5e6e:	0e 88       	sub	r8,	r14	
    5e70:	0e 9a       	cmp	r10,	r14	
    5e72:	05 2c       	jc	$+12     	;abs 0x5e7e
    5e74:	0c 4a       	mov	r10,	r12	
    5e76:	0c 8e       	sub	r14,	r12	
    5e78:	3c 90 03 00 	cmp	#3,	r12	;#0x0003
    5e7c:	06 2c       	jc	$+14     	;abs 0x5e8a
    5e7e:	b0 12 22 47 	call	#0x4722	
    5e82:	2f 53       	incd	r15		
    5e84:	82 4f 92 01 	mov	r15,	&0x0192	
    5e88:	03 3c       	jmp	$+8      	;abs 0x5e90
    5e8a:	0c 5f       	add	r15,	r12	
    5e8c:	82 4c 92 01 	mov	r12,	&0x0192	
    5e90:	b2 f0 fe ff 82 01 	and	#-2,	&0x0182	;#0xfffe
    5e96:	b2 d0 10 00 82 01 	bis	#16,	&0x0182	;#0x0010
    5e9c:	38 41       	pop	r8		
    5e9e:	39 41       	pop	r9		
    5ea0:	3a 41       	pop	r10		
    5ea2:	3b 41       	pop	r11		
    5ea4:	30 41       	ret			

00005ea6 <TransformAlarmC__0__Alarm__start>:
    5ea6:	0b 12       	push	r11		
    5ea8:	0a 12       	push	r10		
    5eaa:	09 12       	push	r9		
    5eac:	08 12       	push	r8		
    5eae:	21 83       	decd	r1		
    5eb0:	0a 4e       	mov	r14,	r10	
    5eb2:	0b 4f       	mov	r15,	r11	
    5eb4:	b0 12 78 5d 	call	#0x5d78	
    5eb8:	08 4e       	mov	r14,	r8	
    5eba:	09 4f       	mov	r15,	r9	
    5ebc:	b0 12 66 4d 	call	#0x4d66	
    5ec0:	82 48 ea 12 	mov	r8,	&0x12ea	
    5ec4:	82 49 ec 12 	mov	r9,	&0x12ec	
    5ec8:	82 4a e2 12 	mov	r10,	&0x12e2	
    5ecc:	82 4b e4 12 	mov	r11,	&0x12e4	
    5ed0:	81 4f 00 00 	mov	r15,	0(r1)	;0x0000(r1)
    5ed4:	b0 12 c2 5d 	call	#0x5dc2	
    5ed8:	2f 41       	mov	@r1,	r15	
    5eda:	b0 12 78 4d 	call	#0x4d78	
    5ede:	21 53       	incd	r1		
    5ee0:	38 41       	pop	r8		
    5ee2:	39 41       	pop	r9		
    5ee4:	3a 41       	pop	r10		
    5ee6:	3b 41       	pop	r11		
    5ee8:	30 41       	ret			

00005eea <CC2420TransmitP__congestionBackoff>:
    5eea:	0b 12       	push	r11		
    5eec:	0a 12       	push	r10		
    5eee:	b0 12 66 4d 	call	#0x4d66	
    5ef2:	4a 4f       	mov.b	r15,	r10	
    5ef4:	1b 42 d0 12 	mov	&0x12d0,r11	
    5ef8:	b0 12 72 5b 	call	#0x5b72	
    5efc:	0d 4e       	mov	r14,	r13	
    5efe:	3e 40 46 00 	mov	#70,	r14	;#0x0046
    5f02:	0f 4d       	mov	r13,	r15	
    5f04:	b0 12 06 9e 	call	#0x9e06	
    5f08:	3f 50 0b 00 	add	#11,	r15	;#0x000b
    5f0c:	82 4f 36 18 	mov	r15,	&0x1836	
    5f10:	5e 4b 32 00 	mov.b	50(r11),r14	;0x0032(r11)
    5f14:	8e 10       	swpb	r14		
    5f16:	5d 4b 33 00 	mov.b	51(r11),r13	;0x0033(r11)
    5f1a:	0e dd       	bis	r13,	r14	
    5f1c:	0e 93       	tst	r14		
    5f1e:	0c 24       	jz	$+26     	;abs 0x5f38
    5f20:	b0 12 72 5b 	call	#0x5b72	
    5f24:	0d 4e       	mov	r14,	r13	
    5f26:	3e 40 1e 00 	mov	#30,	r14	;#0x001e
    5f2a:	0f 4d       	mov	r13,	r15	
    5f2c:	b0 12 06 9e 	call	#0x9e06	
    5f30:	3f 50 0b 00 	add	#11,	r15	;#0x000b
    5f34:	82 4f 36 18 	mov	r15,	&0x1836	
    5f38:	1e 42 36 18 	mov	&0x1836,r14	
    5f3c:	0f 43       	clr	r15		
    5f3e:	b0 12 a6 5e 	call	#0x5ea6	
    5f42:	4f 4a       	mov.b	r10,	r15	
    5f44:	b0 12 78 4d 	call	#0x4d78	
    5f48:	3a 41       	pop	r10		
    5f4a:	3b 41       	pop	r11		
    5f4c:	30 41       	ret			

00005f4e <CC2420TransmitP__attemptSend>:
    5f4e:	0b 12       	push	r11		
    5f50:	0a 12       	push	r10		
    5f52:	b0 12 66 4d 	call	#0x4d66	
    5f56:	4a 4f       	mov.b	r15,	r10	
    5f58:	b2 92 54 11 	cmp	#8,	&0x1154	;r2 As==11
    5f5c:	12 20       	jnz	$+38     	;abs 0x5f82
    5f5e:	7f 40 09 00 	mov.b	#9,	r15	;#0x0009
    5f62:	b0 12 22 58 	call	#0x5822	
    5f66:	b0 12 66 5b 	call	#0x5b66	
    5f6a:	b0 12 a2 5a 	call	#0x5aa2	
    5f6e:	92 43 54 11 	mov	#1,	&0x1154	;r3 As==01
    5f72:	7f 40 03 00 	mov.b	#3,	r15	;#0x0003
    5f76:	b0 12 80 59 	call	#0x5980	
    5f7a:	4f 4a       	mov.b	r10,	r15	
    5f7c:	b0 12 78 4d 	call	#0x4d78	
    5f80:	2f 3c       	jmp	$+96     	;abs 0x5fe0
    5f82:	b0 12 b0 58 	call	#0x58b0	
    5f86:	c2 93 3a 18 	tst.b	&0x183a	
    5f8a:	03 24       	jz	$+8      	;abs 0x5f92
    5f8c:	7f 40 05 00 	mov.b	#5,	r15	;#0x0005
    5f90:	01 3c       	jmp	$+4      	;abs 0x5f94
    5f92:	6f 42       	mov.b	#4,	r15	;r2 As==10
    5f94:	b0 12 22 58 	call	#0x5822	
    5f98:	4e 4f       	mov.b	r15,	r14	
    5f9a:	3e f2       	and	#8,	r14	;r2 As==11
    5f9c:	05 20       	jnz	$+12     	;abs 0x5fa8
    5f9e:	4f 43       	clr.b	r15		
    5fa0:	b0 12 22 58 	call	#0x5822	
    5fa4:	3f f2       	and	#8,	r15	;r2 As==11
    5fa6:	04 20       	jnz	$+10     	;abs 0x5fb0
    5fa8:	5b 43       	mov.b	#1,	r11	;r3 As==01
    5faa:	3f 40 03 00 	mov	#3,	r15	;#0x0003
    5fae:	03 3c       	jmp	$+8      	;abs 0x5fb6
    5fb0:	4b 43       	clr.b	r11		
    5fb2:	3f 40 05 00 	mov	#5,	r15	;#0x0005
    5fb6:	82 4f 54 11 	mov	r15,	&0x1154	
    5fba:	b0 12 a2 5a 	call	#0x5aa2	
    5fbe:	4f 4a       	mov.b	r10,	r15	
    5fc0:	b0 12 78 4d 	call	#0x4d78	
    5fc4:	4b 93       	tst.b	r11		
    5fc6:	07 24       	jz	$+16     	;abs 0x5fd6
    5fc8:	c2 43 ba 11 	mov.b	#0,	&0x11ba	;r3 As==00
    5fcc:	b0 12 66 5b 	call	#0x5b66	
    5fd0:	b0 12 ea 5e 	call	#0x5eea	
    5fd4:	05 3c       	jmp	$+12     	;abs 0x5fe0
    5fd6:	3e 40 40 01 	mov	#320,	r14	;#0x0140
    5fda:	0f 43       	clr	r15		
    5fdc:	b0 12 a6 5e 	call	#0x5ea6	
    5fe0:	3a 41       	pop	r10		
    5fe2:	3b 41       	pop	r11		
    5fe4:	30 41       	ret			

00005fe6 <CC2420SpiP__Reg__write>:
    5fe6:	0b 12       	push	r11		
    5fe8:	0a 12       	push	r10		
    5fea:	09 12       	push	r9		
    5fec:	49 4f       	mov.b	r15,	r9	
    5fee:	0a 4e       	mov	r14,	r10	
    5ff0:	b0 12 66 4d 	call	#0x4d66	
    5ff4:	4b 4f       	mov.b	r15,	r11	
    5ff6:	b0 12 7e 57 	call	#0x577e	
    5ffa:	4f 93       	tst.b	r15		
    5ffc:	05 24       	jz	$+12     	;abs 0x6008
    5ffe:	4f 4b       	mov.b	r11,	r15	
    6000:	b0 12 78 4d 	call	#0x4d78	
    6004:	4f 43       	clr.b	r15		
    6006:	0d 3c       	jmp	$+28     	;abs 0x6022
    6008:	4f 4b       	mov.b	r11,	r15	
    600a:	b0 12 78 4d 	call	#0x4d78	
    600e:	4f 49       	mov.b	r9,	r15	
    6010:	b0 12 9e 46 	call	#0x469e	
    6014:	0f 4a       	mov	r10,	r15	
    6016:	8f 10       	swpb	r15		
    6018:	b0 12 9e 46 	call	#0x469e	
    601c:	4f 4a       	mov.b	r10,	r15	
    601e:	b0 12 9e 46 	call	#0x469e	
    6022:	39 41       	pop	r9		
    6024:	3a 41       	pop	r10		
    6026:	3b 41       	pop	r11		
    6028:	30 41       	ret			

0000602a <CC2420SpiP__Ram__write>:
    602a:	0b 12       	push	r11		
    602c:	0a 12       	push	r10		
    602e:	09 12       	push	r9		
    6030:	08 12       	push	r8		
    6032:	07 12       	push	r7		
    6034:	08 4f       	mov	r15,	r8	
    6036:	4a 4e       	mov.b	r14,	r10	
    6038:	07 4d       	mov	r13,	r7	
    603a:	4b 4c       	mov.b	r12,	r11	
    603c:	b0 12 66 4d 	call	#0x4d66	
    6040:	49 4f       	mov.b	r15,	r9	
    6042:	b0 12 7e 57 	call	#0x577e	
    6046:	4f 93       	tst.b	r15		
    6048:	05 24       	jz	$+12     	;abs 0x6054
    604a:	4f 49       	mov.b	r9,	r15	
    604c:	b0 12 78 4d 	call	#0x4d78	
    6050:	4f 43       	clr.b	r15		
    6052:	21 3c       	jmp	$+68     	;abs 0x6096
    6054:	4f 49       	mov.b	r9,	r15	
    6056:	b0 12 78 4d 	call	#0x4d78	
    605a:	4a 4a       	mov.b	r10,	r10	
    605c:	0a 58       	add	r8,	r10	
    605e:	4f 4a       	mov.b	r10,	r15	
    6060:	7f d0 80 ff 	bis.b	#-128,	r15	;#0xff80
    6064:	b0 12 9e 46 	call	#0x469e	
    6068:	49 4f       	mov.b	r15,	r9	
    606a:	0e 4a       	mov	r10,	r14	
    606c:	12 c3       	clrc			
    606e:	0e 10       	rrc	r14		
    6070:	4f 4e       	mov.b	r14,	r15	
    6072:	7f f0 c0 ff 	and.b	#-64,	r15	;#0xffc0
    6076:	b0 12 9e 46 	call	#0x469e	
    607a:	4a 4b       	mov.b	r11,	r10	
    607c:	09 3c       	jmp	$+20     	;abs 0x6090
    607e:	4e 4b       	mov.b	r11,	r14	
    6080:	0f 4a       	mov	r10,	r15	
    6082:	0f 8e       	sub	r14,	r15	
    6084:	0e 4f       	mov	r15,	r14	
    6086:	0e 57       	add	r7,	r14	
    6088:	6f 4e       	mov.b	@r14,	r15	
    608a:	b0 12 9e 46 	call	#0x469e	
    608e:	7b 53       	add.b	#-1,	r11	;r3 As==11
    6090:	4b 93       	tst.b	r11		
    6092:	f5 23       	jnz	$-20     	;abs 0x607e
    6094:	4f 49       	mov.b	r9,	r15	
    6096:	37 41       	pop	r7		
    6098:	38 41       	pop	r8		
    609a:	39 41       	pop	r9		
    609c:	3a 41       	pop	r10		
    609e:	3b 41       	pop	r11		
    60a0:	30 41       	ret			

000060a2 <CC2420ControlP__writeId>:
    60a2:	0b 12       	push	r11		
    60a4:	31 50 f4 ff 	add	#-12,	r1	;#0xfff4
    60a8:	b0 12 66 4d 	call	#0x4d66	
    60ac:	4b 4f       	mov.b	r15,	r11	
    60ae:	3d 42       	mov	#8,	r13	;r2 As==11
    60b0:	3e 40 14 15 	mov	#5396,	r14	;#0x1514
    60b4:	0f 41       	mov	r1,	r15	
    60b6:	b0 12 a8 9e 	call	#0x9ea8	
    60ba:	1e 42 c8 12 	mov	&0x12c8,r14	
    60be:	c1 4e 08 00 	mov.b	r14,	8(r1)	;0x0008(r1)
    60c2:	8e 10       	swpb	r14		
    60c4:	c1 4e 09 00 	mov.b	r14,	9(r1)	;0x0009(r1)
    60c8:	1e 42 ee 12 	mov	&0x12ee,r14	
    60cc:	c1 4e 0a 00 	mov.b	r14,	10(r1)	;0x000a(r1)
    60d0:	8e 10       	swpb	r14		
    60d2:	c1 4e 0b 00 	mov.b	r14,	11(r1)	;0x000b(r1)
    60d6:	4f 4b       	mov.b	r11,	r15	
    60d8:	b0 12 78 4d 	call	#0x4d78	
    60dc:	7c 40 0c 00 	mov.b	#12,	r12	;#0x000c
    60e0:	0d 41       	mov	r1,	r13	
    60e2:	4e 43       	clr.b	r14		
    60e4:	3f 40 60 01 	mov	#352,	r15	;#0x0160
    60e8:	b0 12 2a 60 	call	#0x602a	
    60ec:	31 50 0c 00 	add	#12,	r1	;#0x000c
    60f0:	3b 41       	pop	r11		
    60f2:	30 41       	ret			

000060f4 <Msp430InterruptC__2__Interrupt__disable>:
    60f4:	b0 12 66 4d 	call	#0x4d66	
    60f8:	f2 f0 df ff 25 00 	and.b	#-33,	&0x0025	;#0xffdf
    60fe:	f2 f0 df ff 23 00 	and.b	#-33,	&0x0023	;#0xffdf
    6104:	b0 12 78 4d 	call	#0x4d78	
    6108:	4f 43       	clr.b	r15		
    610a:	30 41       	ret			

0000610c <CC2420ActiveMessageP__AMPacket__address>:
    610c:	0b 12       	push	r11		
    610e:	b0 12 66 4d 	call	#0x4d66	
    6112:	1b 42 14 11 	mov	&0x1114,r11	
    6116:	b0 12 78 4d 	call	#0x4d78	
    611a:	0f 4b       	mov	r11,	r15	
    611c:	3b 41       	pop	r11		
    611e:	30 41       	ret			

00006120 <SimpleArbiterP__0__Resource__request>:
    6120:	0b 12       	push	r11		
    6122:	0a 12       	push	r10		
    6124:	4b 4f       	mov.b	r15,	r11	
    6126:	b0 12 66 4d 	call	#0x4d66	
    612a:	4a 4f       	mov.b	r15,	r10	
    612c:	c2 93 2e 11 	tst.b	&0x112e	
    6130:	0d 20       	jnz	$+28     	;abs 0x614c
    6132:	d2 43 2e 11 	mov.b	#1,	&0x112e	;r3 As==01
    6136:	c2 4b 06 11 	mov.b	r11,	&0x1106	
    613a:	7f 40 1d 00 	mov.b	#29,	r15	;#0x001d
    613e:	b0 12 80 4d 	call	#0x4d80	
    6142:	4f 4a       	mov.b	r10,	r15	
    6144:	b0 12 78 4d 	call	#0x4d78	
    6148:	4f 43       	clr.b	r15		
    614a:	21 3c       	jmp	$+68     	;abs 0x618e
    614c:	4e 4b       	mov.b	r11,	r14	
    614e:	12 c3       	clrc			
    6150:	4e 10       	rrc.b	r14		
    6152:	12 c3       	clrc			
    6154:	4e 10       	rrc.b	r14		
    6156:	12 c3       	clrc			
    6158:	4e 10       	rrc.b	r14		
    615a:	4e 4e       	mov.b	r14,	r14	
    615c:	5f 4e d2 13 	mov.b	5074(r14),r15	;0x13d2(r14)
    6160:	1d 43       	mov	#1,	r13	;r3 As==01
    6162:	4c 4b       	mov.b	r11,	r12	
    6164:	7c f0 07 00 	and.b	#7,	r12	;#0x0007
    6168:	4c 93       	tst.b	r12		
    616a:	03 24       	jz	$+8      	;abs 0x6172
    616c:	0d 5d       	rla	r13		
    616e:	7c 53       	add.b	#-1,	r12	;r3 As==11
    6170:	fb 3f       	jmp	$-8      	;abs 0x6168
    6172:	4d 4d       	mov.b	r13,	r13	
    6174:	4d bf       	bit.b	r15,	r13	
    6176:	05 20       	jnz	$+12     	;abs 0x6182
    6178:	4d df       	bis.b	r15,	r13	
    617a:	ce 4d d2 13 	mov.b	r13,	5074(r14);0x13d2(r14)
    617e:	4b 43       	clr.b	r11		
    6180:	02 3c       	jmp	$+6      	;abs 0x6186
    6182:	7b 40 05 00 	mov.b	#5,	r11	;#0x0005
    6186:	4f 4a       	mov.b	r10,	r15	
    6188:	b0 12 78 4d 	call	#0x4d78	
    618c:	4f 4b       	mov.b	r11,	r15	
    618e:	3a 41       	pop	r10		
    6190:	3b 41       	pop	r11		
    6192:	30 41       	ret			

00006194 <Msp430RefVoltArbiterImplP__AdcResource__request>:
    6194:	4f 93       	tst.b	r15		
    6196:	02 24       	jz	$+6      	;abs 0x619c
    6198:	5f 93       	cmp.b	#1,	r15	;r3 As==01
    619a:	03 20       	jnz	$+8      	;abs 0x61a2
    619c:	b0 12 20 61 	call	#0x6120	
    61a0:	30 41       	ret			
    61a2:	5f 43       	mov.b	#1,	r15	;r3 As==01
    61a4:	30 41       	ret			

000061a6 <CtpForwardingEngineP__0__packetComplete.isra.252>:
    61a6:	0b 12       	push	r11		
    61a8:	0b 4f       	mov	r15,	r11	
    61aa:	cf 93 02 00 	tst.b	2(r15)		;0x0002(r15)
    61ae:	0c 20       	jnz	$+26     	;abs 0x61c8
    61b0:	82 4f 2c 18 	mov	r15,	&0x182c	
    61b4:	b0 12 66 4d 	call	#0x4d66	
    61b8:	f2 f0 ef ff 31 00 	and.b	#-17,	&0x0031	;#0xffef
    61be:	b0 12 78 4d 	call	#0x4d78	
    61c2:	c2 43 72 11 	mov.b	#0,	&0x1172	;r3 As==00
    61c6:	13 3c       	jmp	$+40     	;abs 0x61ee
    61c8:	4e 93       	tst.b	r14		
    61ca:	03 24       	jz	$+8      	;abs 0x61d2
    61cc:	2f 4f       	mov	@r15,	r15	
    61ce:	b0 12 48 4b 	call	#0x4b48	
    61d2:	2f 4b       	mov	@r11,	r15	
    61d4:	f2 90 0c 00 ff 12 	cmp.b	#12,	&0x12ff	;#0x000c
    61da:	02 2c       	jc	$+6      	;abs 0x61e0
    61dc:	b0 12 f4 4c 	call	#0x4cf4	
    61e0:	f2 90 0c 00 fe 12 	cmp.b	#12,	&0x12fe	;#0x000c
    61e6:	03 2c       	jc	$+8      	;abs 0x61ee
    61e8:	0f 4b       	mov	r11,	r15	
    61ea:	b0 12 1a 4d 	call	#0x4d1a	
    61ee:	3b 41       	pop	r11		
    61f0:	30 41       	ret			

000061f2 <CtpForwardingEngineP__0__SubSend__sendDone>:
    61f2:	0b 12       	push	r11		
    61f4:	0a 12       	push	r10		
    61f6:	0b 4f       	mov	r15,	r11	
    61f8:	5f 42 42 11 	mov.b	&0x1142,r15	
    61fc:	0f 5f       	rla	r15		
    61fe:	1a 4f 90 17 	mov	6032(r15),r10	;0x1790(r15)
    6202:	4e 93       	tst.b	r14		
    6204:	05 24       	jz	$+12     	;abs 0x6210
    6206:	3e 40 1c 00 	mov	#28,	r14	;#0x001c
    620a:	3f 40 1c 00 	mov	#28,	r15	;#0x001c
    620e:	32 3c       	jmp	$+102    	;abs 0x6274
    6210:	f2 b2 44 11 	bit.b	#8,	&0x1144	;r2 As==11
    6214:	40 24       	jz	$+130    	;abs 0x6296
    6216:	cb 93 2c 00 	tst.b	44(r11)	;0x002c(r11)
    621a:	3d 20       	jnz	$+124    	;abs 0x6296
    621c:	5f 4b 07 00 	mov.b	7(r11),	r15	;0x0007(r11)
    6220:	8f 10       	swpb	r15		
    6222:	5e 4b 06 00 	mov.b	6(r11),	r14	;0x0006(r11)
    6226:	0f de       	bis	r14,	r15	
    6228:	b0 12 8e 47 	call	#0x478e	
    622c:	7f 93       	cmp.b	#-1,	r15	;r3 As==11
    622e:	14 24       	jz	$+42     	;abs 0x6258
    6230:	4d 4f       	mov.b	r15,	r13	
    6232:	0d 5d       	rla	r13		
    6234:	0e 4d       	mov	r13,	r14	
    6236:	0e 5e       	rla	r14		
    6238:	0e 5e       	rla	r14		
    623a:	0e 5e       	rla	r14		
    623c:	0e 8d       	sub	r13,	r14	
    623e:	3e 50 46 13 	add	#4934,	r14	;#0x1346
    6242:	5f 4e 0d 00 	mov.b	13(r14),r15	;0x000d(r14)
    6246:	5f 53       	inc.b	r15		
    6248:	ce 4f 0d 00 	mov.b	r15,	13(r14)	;0x000d(r14)
    624c:	7f 90 05 00 	cmp.b	#5,	r15	;#0x0005
    6250:	03 28       	jnc	$+8      	;abs 0x6258
    6252:	0f 4e       	mov	r14,	r15	
    6254:	b0 12 8c 48 	call	#0x488c	
    6258:	7f 40 1a 00 	mov.b	#26,	r15	;#0x001a
    625c:	b0 12 80 4d 	call	#0x4d80	
    6260:	5f 4a 03 00 	mov.b	3(r10),	r15	;0x0003(r10)
    6264:	7f 53       	add.b	#-1,	r15	;r3 As==11
    6266:	ca 4f 03 00 	mov.b	r15,	3(r10)	;0x0003(r10)
    626a:	07 24       	jz	$+16     	;abs 0x627a
    626c:	3e 40 07 00 	mov	#7,	r14	;#0x0007
    6270:	3f 40 07 00 	mov	#7,	r15	;#0x0007
    6274:	b0 12 20 5c 	call	#0x5c20	
    6278:	3e 3c       	jmp	$+126    	;abs 0x62f6
    627a:	b0 12 c8 4c 	call	#0x4cc8	
    627e:	7f 40 10 00 	mov.b	#16,	r15	;#0x0010
    6282:	b0 12 98 46 	call	#0x4698	
    6286:	3e 40 07 00 	mov	#7,	r14	;#0x0007
    628a:	3f 40 07 00 	mov	#7,	r15	;#0x0007
    628e:	b0 12 20 5c 	call	#0x5c20	
    6292:	4e 43       	clr.b	r14		
    6294:	2d 3c       	jmp	$+92     	;abs 0x62f0
    6296:	b0 12 c8 4c 	call	#0x4cc8	
    629a:	7f 40 10 00 	mov.b	#16,	r15	;#0x0010
    629e:	b0 12 98 46 	call	#0x4698	
    62a2:	3e 40 07 00 	mov	#7,	r14	;#0x0007
    62a6:	3f 40 07 00 	mov	#7,	r15	;#0x0007
    62aa:	b0 12 20 5c 	call	#0x5c20	
    62ae:	5f 4b 07 00 	mov.b	7(r11),	r15	;0x0007(r11)
    62b2:	8f 10       	swpb	r15		
    62b4:	5e 4b 06 00 	mov.b	6(r11),	r14	;0x0006(r11)
    62b8:	0f de       	bis	r14,	r15	
    62ba:	b0 12 8e 47 	call	#0x478e	
    62be:	7f 93       	cmp.b	#-1,	r15	;r3 As==11
    62c0:	16 24       	jz	$+46     	;abs 0x62ee
    62c2:	4d 4f       	mov.b	r15,	r13	
    62c4:	0d 5d       	rla	r13		
    62c6:	0e 4d       	mov	r13,	r14	
    62c8:	0e 5e       	rla	r14		
    62ca:	0e 5e       	rla	r14		
    62cc:	0e 5e       	rla	r14		
    62ce:	0e 8d       	sub	r13,	r14	
    62d0:	3e 50 46 13 	add	#4934,	r14	;#0x1346
    62d4:	de 53 0c 00 	inc.b	12(r14)	;0x000c(r14)
    62d8:	5f 4e 0d 00 	mov.b	13(r14),r15	;0x000d(r14)
    62dc:	5f 53       	inc.b	r15		
    62de:	ce 4f 0d 00 	mov.b	r15,	13(r14)	;0x000d(r14)
    62e2:	7f 90 05 00 	cmp.b	#5,	r15	;#0x0005
    62e6:	03 28       	jnc	$+8      	;abs 0x62ee
    62e8:	0f 4e       	mov	r14,	r15	
    62ea:	b0 12 8c 48 	call	#0x488c	
    62ee:	5e 43       	mov.b	#1,	r14	;r3 As==01
    62f0:	0f 4a       	mov	r10,	r15	
    62f2:	b0 12 a6 61 	call	#0x61a6	
    62f6:	3a 41       	pop	r10		
    62f8:	3b 41       	pop	r11		
    62fa:	30 41       	ret			

000062fc <AMQueueImplP__0__Send__sendDone>:
    62fc:	0c 4e       	mov	r14,	r12	
    62fe:	4e 4d       	mov.b	r13,	r14	
    6300:	5f 93       	cmp.b	#1,	r15	;r3 As==01
    6302:	07 24       	jz	$+16     	;abs 0x6312
    6304:	06 28       	jnc	$+14     	;abs 0x6312
    6306:	6f 93       	cmp.b	#2,	r15	;r3 As==10
    6308:	07 24       	jz	$+16     	;abs 0x6318
    630a:	7f 90 03 00 	cmp.b	#3,	r15	;#0x0003
    630e:	10 20       	jnz	$+34     	;abs 0x6330
    6310:	07 3c       	jmp	$+16     	;abs 0x6320
    6312:	c2 43 8d 12 	mov.b	#0,	&0x128d	;r3 As==00
    6316:	30 41       	ret			
    6318:	0f 4c       	mov	r12,	r15	
    631a:	b0 12 f2 61 	call	#0x61f2	
    631e:	30 41       	ret			
    6320:	3c 90 90 12 	cmp	#4752,	r12	;#0x1290
    6324:	05 20       	jnz	$+12     	;abs 0x6330
    6326:	c2 93 34 11 	tst.b	&0x1134	
    632a:	02 24       	jz	$+6      	;abs 0x6330
    632c:	c2 43 34 11 	mov.b	#0,	&0x1134	;r3 As==00
    6330:	30 41       	ret			

00006332 <DefaultLplP__SplitControlState__getState>:
    6332:	0b 12       	push	r11		
    6334:	b0 12 66 4d 	call	#0x4d66	
    6338:	5b 42 fc 14 	mov.b	&0x14fc,r11	
    633c:	b0 12 78 4d 	call	#0x4d78	
    6340:	4f 4b       	mov.b	r11,	r15	
    6342:	3b 41       	pop	r11		
    6344:	30 41       	ret			

00006346 <CC2420TinyosNetworkP__ActiveSend__send>:
    6346:	0b 12       	push	r11		
    6348:	0a 12       	push	r10		
    634a:	09 12       	push	r9		
    634c:	0b 4f       	mov	r15,	r11	
    634e:	4a 4e       	mov.b	r14,	r10	
    6350:	b0 12 66 4d 	call	#0x4d66	
    6354:	49 4f       	mov.b	r15,	r9	
    6356:	0f 4b       	mov	r11,	r15	
    6358:	b0 12 e6 47 	call	#0x47e6	
    635c:	ff 40 3f 00 00 00 	mov.b	#63,	0(r15)	;#0x003f, 0x0000(r15)
    6362:	4f 49       	mov.b	r9,	r15	
    6364:	b0 12 78 4d 	call	#0x4d78	
    6368:	82 43 24 18 	mov	#0,	&0x1824	;r3 As==00
    636c:	5e 43       	mov.b	#1,	r14	;r3 As==01
    636e:	6f 43       	mov.b	#2,	r15	;r3 As==10
    6370:	b0 12 b6 59 	call	#0x59b6	
    6374:	4f 93       	tst.b	r15		
    6376:	36 20       	jnz	$+110    	;abs 0x63e4
    6378:	5f 42 8f 17 	mov.b	&0x178f,r15	
    637c:	4e 4f       	mov.b	r15,	r14	
    637e:	5e 53       	inc.b	r14		
    6380:	c2 4e 8f 17 	mov.b	r14,	&0x178f	
    6384:	cb 4f 03 00 	mov.b	r15,	3(r11)	;0x0003(r11)
    6388:	b0 12 32 63 	call	#0x6332	
    638c:	4f 93       	tst.b	r15		
    638e:	22 24       	jz	$+70     	;abs 0x63d4
    6390:	6e 43       	mov.b	#2,	r14	;r3 As==10
    6392:	7f 40 05 00 	mov.b	#5,	r15	;#0x0005
    6396:	b0 12 b6 59 	call	#0x59b6	
    639a:	4f 93       	tst.b	r15		
    639c:	1d 20       	jnz	$+60     	;abs 0x63d8
    639e:	82 4b f6 14 	mov	r11,	&0x14f6	
    63a2:	c2 4a d6 14 	mov.b	r10,	&0x14d6	
    63a6:	f2 f0 fd ff fa 13 	and.b	#-3,	&0x13fa	;#0xfffd
    63ac:	f2 f0 fd ff 04 14 	and.b	#-3,	&0x1404	;#0xfffd
    63b2:	b0 12 66 4d 	call	#0x4d66	
    63b6:	5b 42 fb 14 	mov.b	&0x14fb,r11	
    63ba:	b0 12 78 4d 	call	#0x4d78	
    63be:	6b 93       	cmp.b	#2,	r11	;r3 As==10
    63c0:	03 20       	jnz	$+8      	;abs 0x63c8
    63c2:	b0 12 ec 4f 	call	#0x4fec	
    63c6:	04 3c       	jmp	$+10     	;abs 0x63d0
    63c8:	7f 40 12 00 	mov.b	#18,	r15	;#0x0012
    63cc:	b0 12 80 4d 	call	#0x4d80	
    63d0:	4b 43       	clr.b	r11		
    63d2:	0a 3c       	jmp	$+22     	;abs 0x63e8
    63d4:	6b 42       	mov.b	#4,	r11	;r2 As==10
    63d6:	02 3c       	jmp	$+6      	;abs 0x63dc
    63d8:	7b 40 05 00 	mov.b	#5,	r11	;#0x0005
    63dc:	6f 43       	mov.b	#2,	r15	;r3 As==10
    63de:	b0 12 ea 59 	call	#0x59ea	
    63e2:	02 3c       	jmp	$+6      	;abs 0x63e8
    63e4:	7b 40 05 00 	mov.b	#5,	r11	;#0x0005
    63e8:	4f 4b       	mov.b	r11,	r15	
    63ea:	39 41       	pop	r9		
    63ec:	3a 41       	pop	r10		
    63ee:	3b 41       	pop	r11		
    63f0:	30 41       	ret			

000063f2 <CC2420ActiveMessageP__AMSend__send>:
    63f2:	0b 12       	push	r11		
    63f4:	0a 12       	push	r10		
    63f6:	09 12       	push	r9		
    63f8:	0b 4d       	mov	r13,	r11	
    63fa:	4a 4c       	mov.b	r12,	r10	
    63fc:	7c 90 1d 00 	cmp.b	#29,	r12	;#0x001d
    6400:	4c 2c       	jc	$+154    	;abs 0x649a
    6402:	cd 4f 0b 00 	mov.b	r15,	11(r13)	;0x000b(r13)
    6406:	cd 4e 06 00 	mov.b	r14,	6(r13)	;0x0006(r13)
    640a:	8e 10       	swpb	r14		
    640c:	cd 4e 07 00 	mov.b	r14,	7(r13)	;0x0007(r13)
    6410:	b0 12 66 4d 	call	#0x4d66	
    6414:	19 42 c8 12 	mov	&0x12c8,r9	
    6418:	b0 12 78 4d 	call	#0x4d78	
    641c:	cb 49 04 00 	mov.b	r9,	4(r11)	;0x0004(r11)
    6420:	89 10       	swpb	r9		
    6422:	cb 49 05 00 	mov.b	r9,	5(r11)	;0x0005(r11)
    6426:	b0 12 0c 61 	call	#0x610c	
    642a:	cb 4f 08 00 	mov.b	r15,	8(r11)	;0x0008(r11)
    642e:	8f 10       	swpb	r15		
    6430:	cb 4f 09 00 	mov.b	r15,	9(r11)	;0x0009(r11)
    6434:	5f 4b 01 00 	mov.b	1(r11),	r15	;0x0001(r11)
    6438:	3f d0 40 88 	bis	#-30656,r15	;#0x8840
    643c:	5e 4b 02 00 	mov.b	2(r11),	r14	;0x0002(r11)
    6440:	8e 10       	swpb	r14		
    6442:	0f de       	bis	r14,	r15	
    6444:	cb 4f 01 00 	mov.b	r15,	1(r11)	;0x0001(r11)
    6448:	8f 10       	swpb	r15		
    644a:	cb 4f 02 00 	mov.b	r15,	2(r11)	;0x0002(r11)
    644e:	4f 4a       	mov.b	r10,	r15	
    6450:	7f 50 0d 00 	add.b	#13,	r15	;#0x000d
    6454:	cb 4f 00 00 	mov.b	r15,	0(r11)	;0x0000(r11)
    6458:	c2 93 12 11 	tst.b	&0x1112	
    645c:	09 24       	jz	$+20     	;abs 0x6470
    645e:	c2 43 12 11 	mov.b	#0,	&0x1112	;r3 As==00
    6462:	4e 4a       	mov.b	r10,	r14	
    6464:	0f 4b       	mov	r11,	r15	
    6466:	b0 12 46 63 	call	#0x6346	
    646a:	4f 93       	tst.b	r15		
    646c:	0f 20       	jnz	$+32     	;abs 0x648c
    646e:	19 3c       	jmp	$+52     	;abs 0x64a2
    6470:	c2 4a fc 12 	mov.b	r10,	&0x12fc	
    6474:	c2 43 fd 12 	mov.b	#0,	&0x12fd	;r3 As==00
    6478:	82 4b 4a 11 	mov	r11,	&0x114a	
    647c:	7f 40 0f 00 	mov.b	#15,	r15	;#0x000f
    6480:	b0 12 80 4d 	call	#0x4d80	
    6484:	c2 93 12 11 	tst.b	&0x1112	
    6488:	0a 24       	jz	$+22     	;abs 0x649e
    648a:	03 3c       	jmp	$+8      	;abs 0x6492
    648c:	f2 43 12 11 	mov.b	#-1,	&0x1112	;r3 As==11
    6490:	08 3c       	jmp	$+18     	;abs 0x64a2
    6492:	c2 43 d6 12 	mov.b	#0,	&0x12d6	;r3 As==00
    6496:	4f 43       	clr.b	r15		
    6498:	04 3c       	jmp	$+10     	;abs 0x64a2
    649a:	6f 43       	mov.b	#2,	r15	;r3 As==10
    649c:	02 3c       	jmp	$+6      	;abs 0x64a2
    649e:	7f 40 09 00 	mov.b	#9,	r15	;#0x0009
    64a2:	39 41       	pop	r9		
    64a4:	3a 41       	pop	r10		
    64a6:	3b 41       	pop	r11		
    64a8:	30 41       	ret			

000064aa <AMQueueImplP__0__tryToSend>:
    64aa:	0b 12       	push	r11		
    64ac:	5c 42 1a 11 	mov.b	&0x111a,r12	
    64b0:	1c 53       	inc	r12		
    64b2:	7c f0 03 00 	and.b	#3,	r12	;#0x0003
    64b6:	6b 42       	mov.b	#4,	r11	;r2 As==10
    64b8:	4e 4c       	mov.b	r12,	r14	
    64ba:	0f 4e       	mov	r14,	r15	
    64bc:	0f 5f       	rla	r15		
    64be:	8f 93 3a 13 	tst	4922(r15)	;0x133a(r15)
    64c2:	0a 24       	jz	$+22     	;abs 0x64d8
    64c4:	5f 42 22 18 	mov.b	&0x1822,r15	
    64c8:	4d 4e       	mov.b	r14,	r13	
    64ca:	4d 93       	tst.b	r13		
    64cc:	03 24       	jz	$+8      	;abs 0x64d4
    64ce:	0f 11       	rra	r15		
    64d0:	7d 53       	add.b	#-1,	r13	;r3 As==11
    64d2:	fb 3f       	jmp	$-8      	;abs 0x64ca
    64d4:	1f f3       	and	#1,	r15	;r3 As==01
    64d6:	07 24       	jz	$+16     	;abs 0x64e6
    64d8:	1e 53       	inc	r14		
    64da:	4c 4e       	mov.b	r14,	r12	
    64dc:	7c f0 03 00 	and.b	#3,	r12	;#0x0003
    64e0:	7b 53       	add.b	#-1,	r11	;r3 As==11
    64e2:	ea 23       	jnz	$-42     	;abs 0x64b8
    64e4:	1e 3c       	jmp	$+62     	;abs 0x6522
    64e6:	c2 4c 1a 11 	mov.b	r12,	&0x111a	
    64ea:	5f 42 1a 11 	mov.b	&0x111a,r15	
    64ee:	6f 92       	cmp.b	#4,	r15	;r2 As==10
    64f0:	1b 2c       	jc	$+56     	;abs 0x6528
    64f2:	4f 4f       	mov.b	r15,	r15	
    64f4:	0f 5f       	rla	r15		
    64f6:	1d 4f 3a 13 	mov	4922(r15),r13	;0x133a(r15)
    64fa:	5f 4d 07 00 	mov.b	7(r13),	r15	;0x0007(r13)
    64fe:	8f 10       	swpb	r15		
    6500:	5e 4d 06 00 	mov.b	6(r13),	r14	;0x0006(r13)
    6504:	6c 4d       	mov.b	@r13,	r12	
    6506:	7c 50 f3 ff 	add.b	#-13,	r12	;#0xfff3
    650a:	0e df       	bis	r15,	r14	
    650c:	5f 4d 0b 00 	mov.b	11(r13),r15	;0x000b(r13)
    6510:	b0 12 f2 63 	call	#0x63f2	
    6514:	4f 93       	tst.b	r15		
    6516:	08 24       	jz	$+18     	;abs 0x6528
    6518:	7f 40 03 00 	mov.b	#3,	r15	;#0x0003
    651c:	b0 12 80 4d 	call	#0x4d80	
    6520:	03 3c       	jmp	$+8      	;abs 0x6528
    6522:	e2 42 1a 11 	mov.b	#4,	&0x111a	;r2 As==10
    6526:	e1 3f       	jmp	$-60     	;abs 0x64ea
    6528:	3b 41       	pop	r11		
    652a:	30 41       	ret			

0000652c <CC2420ActiveMessageP__AMSend__sendDone.isra.256>:
    652c:	0b 12       	push	r11		
    652e:	0a 12       	push	r10		
    6530:	09 12       	push	r9		
    6532:	49 4e       	mov.b	r14,	r9	
    6534:	5b 42 1a 11 	mov.b	&0x111a,r11	
    6538:	6b 92       	cmp.b	#4,	r11	;r2 As==10
    653a:	10 2c       	jc	$+34     	;abs 0x655c
    653c:	4c 4b       	mov.b	r11,	r12	
    653e:	0c 5c       	rla	r12		
    6540:	3c 50 3a 13 	add	#4922,	r12	;#0x133a
    6544:	2a 4c       	mov	@r12,	r10	
    6546:	0a 9f       	cmp	r15,	r10	
    6548:	09 20       	jnz	$+20     	;abs 0x655c
    654a:	8c 43 00 00 	mov	#0,	0(r12)	;r3 As==00, 0x0000(r12)
    654e:	b0 12 aa 64 	call	#0x64aa	
    6552:	4d 49       	mov.b	r9,	r13	
    6554:	0e 4a       	mov	r10,	r14	
    6556:	4f 4b       	mov.b	r11,	r15	
    6558:	b0 12 fc 62 	call	#0x62fc	
    655c:	39 41       	pop	r9		
    655e:	3a 41       	pop	r10		
    6560:	3b 41       	pop	r11		
    6562:	30 41       	ret			

00006564 <AMQueueImplP__0__Send__send>:
    6564:	0b 12       	push	r11		
    6566:	0a 12       	push	r10		
    6568:	09 12       	push	r9		
    656a:	08 12       	push	r8		
    656c:	6f 92       	cmp.b	#4,	r15	;r2 As==10
    656e:	28 2c       	jc	$+82     	;abs 0x65c0
    6570:	4b 4f       	mov.b	r15,	r11	
    6572:	0b 5b       	rla	r11		
    6574:	3b 50 3a 13 	add	#4922,	r11	;#0x133a
    6578:	8b 93 00 00 	tst	0(r11)		;0x0000(r11)
    657c:	23 20       	jnz	$+72     	;abs 0x65c4
    657e:	8b 4e 00 00 	mov	r14,	0(r11)	;0x0000(r11)
    6582:	4c 4d       	mov.b	r13,	r12	
    6584:	7c 50 0d 00 	add.b	#13,	r12	;#0x000d
    6588:	ce 4c 00 00 	mov.b	r12,	0(r14)	;0x0000(r14)
    658c:	e2 92 1a 11 	cmp.b	#4,	&0x111a	;r2 As==10
    6590:	1c 28       	jnc	$+58     	;abs 0x65ca
    6592:	59 4e 0b 00 	mov.b	11(r14),r9	;0x000b(r14)
    6596:	5a 4e 07 00 	mov.b	7(r14),	r10	;0x0007(r14)
    659a:	8a 10       	swpb	r10		
    659c:	58 4e 06 00 	mov.b	6(r14),	r8	;0x0006(r14)
    65a0:	c2 4f 1a 11 	mov.b	r15,	&0x111a	
    65a4:	4c 4d       	mov.b	r13,	r12	
    65a6:	0d 4e       	mov	r14,	r13	
    65a8:	0e 4a       	mov	r10,	r14	
    65aa:	0e d8       	bis	r8,	r14	
    65ac:	4f 49       	mov.b	r9,	r15	
    65ae:	b0 12 f2 63 	call	#0x63f2	
    65b2:	4f 93       	tst.b	r15		
    65b4:	0b 24       	jz	$+24     	;abs 0x65cc
    65b6:	e2 42 1a 11 	mov.b	#4,	&0x111a	;r2 As==10
    65ba:	8b 43 00 00 	mov	#0,	0(r11)	;r3 As==00, 0x0000(r11)
    65be:	06 3c       	jmp	$+14     	;abs 0x65cc
    65c0:	5f 43       	mov.b	#1,	r15	;r3 As==01
    65c2:	04 3c       	jmp	$+10     	;abs 0x65cc
    65c4:	7f 40 05 00 	mov.b	#5,	r15	;#0x0005
    65c8:	01 3c       	jmp	$+4      	;abs 0x65cc
    65ca:	4f 43       	clr.b	r15		
    65cc:	38 41       	pop	r8		
    65ce:	39 41       	pop	r9		
    65d0:	3a 41       	pop	r10		
    65d2:	3b 41       	pop	r11		
    65d4:	30 41       	ret			

000065d6 <DisseminationEngineImplP__sendObject>:
    65d6:	0b 12       	push	r11		
    65d8:	0b 4f       	mov	r15,	r11	
    65da:	c2 93 d8 11 	tst.b	&0x11d8	
    65de:	4f 24       	jz	$+160    	;abs 0x667e
    65e0:	c2 93 8d 12 	tst.b	&0x128d	
    65e4:	4c 20       	jnz	$+154    	;abs 0x667e
    65e6:	d2 43 8d 12 	mov.b	#1,	&0x128d	;r3 As==01
    65ea:	c2 4f 93 11 	mov.b	r15,	&0x1193	
    65ee:	8f 10       	swpb	r15		
    65f0:	c2 4f 92 11 	mov.b	r15,	&0x1192	
    65f4:	1b 93       	cmp	#1,	r11	;r3 As==01
    65f6:	05 20       	jnz	$+12     	;abs 0x6602
    65f8:	1e 42 46 11 	mov	&0x1146,r14	
    65fc:	1f 42 48 11 	mov	&0x1148,r15	
    6600:	02 3c       	jmp	$+6      	;abs 0x6606
    6602:	0e 43       	clr	r14		
    6604:	0f 43       	clr	r15		
    6606:	c2 4e 97 11 	mov.b	r14,	&0x1197	
    660a:	0d 4f       	mov	r15,	r13	
    660c:	8e 10       	swpb	r14		
    660e:	8d 10       	swpb	r13		
    6610:	4e ed       	xor.b	r13,	r14	
    6612:	0e ed       	xor	r13,	r14	
    6614:	c2 4e 96 11 	mov.b	r14,	&0x1196	
    6618:	c2 4f 95 11 	mov.b	r15,	&0x1195	
    661c:	8f 10       	swpb	r15		
    661e:	c2 4f 94 11 	mov.b	r15,	&0x1194	
    6622:	3f 40 94 11 	mov	#4500,	r15	;#0x1194
    6626:	b0 12 14 46 	call	#0x4614	
    662a:	0e 93       	tst	r14		
    662c:	02 20       	jnz	$+6      	;abs 0x6632
    662e:	0f 93       	tst	r15		
    6630:	0f 24       	jz	$+32     	;abs 0x6650
    6632:	1b 93       	cmp	#1,	r11	;r3 As==01
    6634:	03 24       	jz	$+8      	;abs 0x663c
    6636:	4b 43       	clr.b	r11		
    6638:	0e 43       	clr	r14		
    663a:	03 3c       	jmp	$+8      	;abs 0x6642
    663c:	6b 42       	mov.b	#4,	r11	;r2 As==10
    663e:	3e 40 00 15 	mov	#5376,	r14	;#0x1500
    6642:	0d 4b       	mov	r11,	r13	
    6644:	2d f2       	and	#4,	r13	;r2 As==10
    6646:	3f 40 98 11 	mov	#4504,	r15	;#0x1198
    664a:	b0 12 a8 9e 	call	#0x9ea8	
    664e:	01 3c       	jmp	$+4      	;abs 0x6652
    6650:	4b 43       	clr.b	r11		
    6652:	1f 42 4c 11 	mov	&0x114c,r15	
    6656:	c2 4f b9 11 	mov.b	r15,	&0x11b9	
    665a:	8f 10       	swpb	r15		
    665c:	c2 4f b8 11 	mov.b	r15,	&0x11b8	
    6660:	f2 43 8c 11 	mov.b	#-1,	&0x118c	;r3 As==11
    6664:	f2 43 8d 11 	mov.b	#-1,	&0x118d	;r3 As==11
    6668:	f2 40 60 00 91 11 	mov.b	#96,	&0x1191	;#0x0060
    666e:	4d 4b       	mov.b	r11,	r13	
    6670:	7d 50 06 00 	add.b	#6,	r13	;#0x0006
    6674:	3e 40 86 11 	mov	#4486,	r14	;#0x1186
    6678:	4f 43       	clr.b	r15		
    667a:	b0 12 64 65 	call	#0x6564	
    667e:	3b 41       	pop	r11		
    6680:	30 41       	ret			

00006682 <DefaultLplP__SendState__getState>:
    6682:	0b 12       	push	r11		
    6684:	b0 12 66 4d 	call	#0x4d66	
    6688:	5b 42 fd 14 	mov.b	&0x14fd,r11	
    668c:	b0 12 78 4d 	call	#0x4d78	
    6690:	4f 4b       	mov.b	r11,	r15	
    6692:	3b 41       	pop	r11		
    6694:	30 41       	ret			

00006696 <StateImplP__State__forceState>:
    6696:	0b 12       	push	r11		
    6698:	0a 12       	push	r10		
    669a:	4a 4f       	mov.b	r15,	r10	
    669c:	4b 4e       	mov.b	r14,	r11	
    669e:	b0 12 66 4d 	call	#0x4d66	
    66a2:	4d 4a       	mov.b	r10,	r13	
    66a4:	cd 4b f8 14 	mov.b	r11,	5368(r13);0x14f8(r13)
    66a8:	b0 12 78 4d 	call	#0x4d78	
    66ac:	3a 41       	pop	r10		
    66ae:	3b 41       	pop	r11		
    66b0:	30 41       	ret			

000066b2 <TrickleTimerImplP__0__Changed__set>:
    66b2:	0b 12       	push	r11		
    66b4:	0b 4f       	mov	r15,	r11	
    66b6:	b0 12 66 4d 	call	#0x4d66	
    66ba:	0e 4b       	mov	r11,	r14	
    66bc:	12 c3       	clrc			
    66be:	0e 10       	rrc	r14		
    66c0:	12 c3       	clrc			
    66c2:	0e 10       	rrc	r14		
    66c4:	12 c3       	clrc			
    66c6:	0e 10       	rrc	r14		
    66c8:	1d 43       	mov	#1,	r13	;r3 As==01
    66ca:	4c 4b       	mov.b	r11,	r12	
    66cc:	7c f0 07 00 	and.b	#7,	r12	;#0x0007
    66d0:	4c 93       	tst.b	r12		
    66d2:	03 24       	jz	$+8      	;abs 0x66da
    66d4:	0d 5d       	rla	r13		
    66d6:	7c 53       	add.b	#-1,	r12	;r3 As==11
    66d8:	fb 3f       	jmp	$-8      	;abs 0x66d0
    66da:	ce dd a2 14 	bis.b	r13,	5282(r14);0x14a2(r14)
    66de:	b0 12 78 4d 	call	#0x4d78	
    66e2:	3b 41       	pop	r11		
    66e4:	30 41       	ret			

000066e6 <TrickleTimerImplP__0__adjustTimer>:
    66e6:	0b 12       	push	r11		
    66e8:	0a 12       	push	r10		
    66ea:	09 12       	push	r9		
    66ec:	08 12       	push	r8		
    66ee:	07 12       	push	r7		
    66f0:	06 12       	push	r6		
    66f2:	b0 12 0a 4e 	call	#0x4e0a	
    66f6:	06 4e       	mov	r14,	r6	
    66f8:	07 4f       	mov	r15,	r7	
    66fa:	18 42 06 14 	mov	&0x1406,r8	
    66fe:	19 42 08 14 	mov	&0x1408,r9	
    6702:	1a 42 7c 11 	mov	&0x117c,r10	
    6706:	1b 42 7e 11 	mov	&0x117e,r11	
    670a:	0a 93       	tst	r10		
    670c:	02 20       	jnz	$+6      	;abs 0x6712
    670e:	0b 93       	tst	r11		
    6710:	2d 24       	jz	$+92     	;abs 0x676c
    6712:	b0 12 66 4d 	call	#0x4d66	
    6716:	4d 4f       	mov.b	r15,	r13	
    6718:	5f 42 a2 14 	mov.b	&0x14a2,r15	
    671c:	1f b3       	bit	#1,	r15	;r3 As==01
    671e:	18 20       	jnz	$+50     	;abs 0x6750
    6720:	0e 46       	mov	r6,	r14	
    6722:	0f 47       	mov	r7,	r15	
    6724:	0e 88       	sub	r8,	r14	
    6726:	0f 79       	subc	r9,	r15	
    6728:	0f 9b       	cmp	r11,	r15	
    672a:	04 28       	jnc	$+10     	;abs 0x6734
    672c:	0b 9f       	cmp	r15,	r11	
    672e:	09 28       	jnc	$+20     	;abs 0x6742
    6730:	0e 9a       	cmp	r10,	r14	
    6732:	07 2c       	jc	$+16     	;abs 0x6742
    6734:	0a 8e       	sub	r14,	r10	
    6736:	0b 7f       	subc	r15,	r11	
    6738:	82 8e 7c 11 	sub	r14,	&0x117c	
    673c:	82 7f 7e 11 	subc	r15,	&0x117e	
    6740:	0b 3c       	jmp	$+24     	;abs 0x6758
    6742:	92 43 7c 11 	mov	#1,	&0x117c	;r3 As==01
    6746:	82 43 7e 11 	mov	#0,	&0x117e	;r3 As==00
    674a:	1a 43       	mov	#1,	r10	;r3 As==01
    674c:	0b 43       	clr	r11		
    674e:	04 3c       	jmp	$+10     	;abs 0x6758
    6750:	7f f0 fe ff 	and.b	#-2,	r15	;#0xfffe
    6754:	c2 4f a2 14 	mov.b	r15,	&0x14a2	
    6758:	4f 4d       	mov.b	r13,	r15	
    675a:	b0 12 78 4d 	call	#0x4d78	
    675e:	0d 4a       	mov	r10,	r13	
    6760:	0e 4b       	mov	r11,	r14	
    6762:	7f 40 05 00 	mov.b	#5,	r15	;#0x0005
    6766:	b0 12 a6 4f 	call	#0x4fa6	
    676a:	03 3c       	jmp	$+8      	;abs 0x6772
    676c:	f2 f0 fd ff 0e 14 	and.b	#-3,	&0x140e	;#0xfffd
    6772:	36 41       	pop	r6		
    6774:	37 41       	pop	r7		
    6776:	38 41       	pop	r8		
    6778:	39 41       	pop	r9		
    677a:	3a 41       	pop	r10		
    677c:	3b 41       	pop	r11		
    677e:	30 41       	ret			

00006780 <DisseminationEngineImplP__TrickleTimer__reset>:
    6780:	0b 12       	push	r11		
    6782:	1f 93       	cmp	#1,	r15	;r3 As==01
    6784:	20 20       	jnz	$+66     	;abs 0x67c6
    6786:	92 43 7a 11 	mov	#1,	&0x117a	;r3 As==01
    678a:	c2 43 84 11 	mov.b	#0,	&0x1184	;r3 As==00
    678e:	82 93 7c 11 	tst	&0x117c	
    6792:	03 20       	jnz	$+8      	;abs 0x679a
    6794:	82 93 7e 11 	tst	&0x117e	
    6798:	16 24       	jz	$+46     	;abs 0x67c6
    679a:	b0 12 66 4d 	call	#0x4d66	
    679e:	4b 4f       	mov.b	r15,	r11	
    67a0:	0f 43       	clr	r15		
    67a2:	b0 12 b2 66 	call	#0x66b2	
    67a6:	4f 4b       	mov.b	r11,	r15	
    67a8:	b0 12 78 4d 	call	#0x4d78	
    67ac:	82 43 7c 11 	mov	#0,	&0x117c	;r3 As==00
    67b0:	82 43 7e 11 	mov	#0,	&0x117e	;r3 As==00
    67b4:	82 43 80 11 	mov	#0,	&0x1180	;r3 As==00
    67b8:	82 43 82 11 	mov	#0,	&0x1182	;r3 As==00
    67bc:	4f 43       	clr.b	r15		
    67be:	b0 12 46 5c 	call	#0x5c46	
    67c2:	b0 12 e6 66 	call	#0x66e6	
    67c6:	3b 41       	pop	r11		
    67c8:	30 41       	ret			

000067ca <PowerCycleP__finishSplitControlRequests>:
    67ca:	0b 12       	push	r11		
    67cc:	7f 40 03 00 	mov.b	#3,	r15	;#0x0003
    67d0:	b0 12 52 58 	call	#0x5852	
    67d4:	4f 93       	tst.b	r15		
    67d6:	0a 24       	jz	$+22     	;abs 0x67ec
    67d8:	4e 43       	clr.b	r14		
    67da:	6f 42       	mov.b	#4,	r15	;r2 As==10
    67dc:	b0 12 96 66 	call	#0x6696	
    67e0:	c2 43 38 11 	mov.b	#0,	&0x1138	;r3 As==00
    67e4:	6f 42       	mov.b	#4,	r15	;r2 As==10
    67e6:	b0 12 98 46 	call	#0x4698	
    67ea:	5f 3c       	jmp	$+192    	;abs 0x68aa
    67ec:	5f 43       	mov.b	#1,	r15	;r3 As==01
    67ee:	b0 12 52 58 	call	#0x5852	
    67f2:	4f 93       	tst.b	r15		
    67f4:	58 24       	jz	$+178    	;abs 0x68a6
    67f6:	6e 43       	mov.b	#2,	r14	;r3 As==10
    67f8:	6f 42       	mov.b	#4,	r15	;r2 As==10
    67fa:	b0 12 96 66 	call	#0x6696	
    67fe:	d2 43 38 11 	mov.b	#1,	&0x1138	;r3 As==01
    6802:	c2 93 36 11 	tst.b	&0x1136	
    6806:	02 24       	jz	$+6      	;abs 0x680c
    6808:	b0 12 72 5b 	call	#0x5b72	
    680c:	e2 d2 44 11 	bis.b	#4,	&0x1144	;r2 As==10
    6810:	c2 93 3e 11 	tst.b	&0x113e	
    6814:	02 24       	jz	$+6      	;abs 0x681a
    6816:	b0 12 00 4e 	call	#0x4e00	
    681a:	82 93 7c 11 	tst	&0x117c	
    681e:	19 20       	jnz	$+52     	;abs 0x6852
    6820:	82 93 7e 11 	tst	&0x117e	
    6824:	16 20       	jnz	$+46     	;abs 0x6852
    6826:	82 43 80 11 	mov	#0,	&0x1180	;r3 As==00
    682a:	82 43 82 11 	mov	#0,	&0x1182	;r3 As==00
    682e:	c2 43 84 11 	mov.b	#0,	&0x1184	;r3 As==00
    6832:	4f 43       	clr.b	r15		
    6834:	b0 12 46 5c 	call	#0x5c46	
    6838:	b0 12 66 4d 	call	#0x4d66	
    683c:	4b 4f       	mov.b	r15,	r11	
    683e:	0f 43       	clr	r15		
    6840:	b0 12 b2 66 	call	#0x66b2	
    6844:	4f 4b       	mov.b	r11,	r15	
    6846:	b0 12 78 4d 	call	#0x4d78	
    684a:	b0 12 e6 66 	call	#0x66e6	
    684e:	4b 43       	clr.b	r11		
    6850:	02 3c       	jmp	$+6      	;abs 0x6856
    6852:	7b 40 05 00 	mov.b	#5,	r11	;#0x0005
    6856:	1f 43       	mov	#1,	r15	;r3 As==01
    6858:	b0 12 80 67 	call	#0x6780	
    685c:	4b 93       	tst.b	r11		
    685e:	02 20       	jnz	$+6      	;abs 0x6864
    6860:	d2 43 bb 11 	mov.b	#1,	&0x11bb	;r3 As==01
    6864:	d2 43 d8 11 	mov.b	#1,	&0x11d8	;r3 As==01
    6868:	e2 d3 44 11 	bis.b	#2,	&0x1144	;r3 As==10
    686c:	b0 12 0c 61 	call	#0x610c	
    6870:	82 4f f2 14 	mov	r15,	&0x14f2	
    6874:	c2 93 36 11 	tst.b	&0x1136	
    6878:	0b 20       	jnz	$+24     	;abs 0x6890
    687a:	d2 43 36 11 	mov.b	#1,	&0x1136	;r3 As==01
    687e:	b0 12 68 5d 	call	#0x5d68	
    6882:	3d 40 00 20 	mov	#8192,	r13	;#0x2000
    6886:	0e 43       	clr	r14		
    6888:	7f 40 07 00 	mov.b	#7,	r15	;#0x0007
    688c:	b0 12 76 50 	call	#0x5076	
    6890:	82 93 20 11 	tst	&0x1120	
    6894:	0a 24       	jz	$+22     	;abs 0x68aa
    6896:	3d 40 e8 13 	mov	#5096,	r13	;#0x13e8
    689a:	0e 43       	clr	r14		
    689c:	7f 40 0e 00 	mov.b	#14,	r15	;#0x000e
    68a0:	b0 12 76 50 	call	#0x5076	
    68a4:	02 3c       	jmp	$+6      	;abs 0x68aa
    68a6:	4f 43       	clr.b	r15		
    68a8:	01 3c       	jmp	$+4      	;abs 0x68ac
    68aa:	5f 43       	mov.b	#1,	r15	;r3 As==01
    68ac:	3b 41       	pop	r11		
    68ae:	30 41       	ret			

000068b0 <CC2420ControlP__RSTN__clr>:
    68b0:	b0 12 66 4d 	call	#0x4d66	
    68b4:	f2 f0 bf ff 1d 00 	and.b	#-65,	&0x001d	;#0xffbf
    68ba:	b0 12 78 4d 	call	#0x4d78	
    68be:	30 41       	ret			

000068c0 <CC2420ControlP__RSTN__set>:
    68c0:	b0 12 66 4d 	call	#0x4d66	
    68c4:	f2 d0 40 00 1d 00 	bis.b	#64,	&0x001d	;#0x0040
    68ca:	b0 12 78 4d 	call	#0x4d78	
    68ce:	30 41       	ret			

000068d0 <CC2420CsmaP__shutdown>:
    68d0:	0b 12       	push	r11		
    68d2:	21 83       	decd	r1		
    68d4:	b0 12 66 4d 	call	#0x4d66	
    68d8:	4b 4f       	mov.b	r15,	r11	
    68da:	82 43 54 11 	mov	#0,	&0x1154	;r3 As==00
    68de:	b2 f0 ef ff 82 01 	and	#-17,	&0x0182	;#0xffef
    68e4:	b2 f0 ef ff 84 01 	and	#-17,	&0x0184	;#0xffef
    68ea:	f2 f0 fd ff 1f 00 	and.b	#-3,	&0x001f	;#0xfffd
    68f0:	7f 40 03 00 	mov.b	#3,	r15	;#0x0003
    68f4:	b0 12 b0 5a 	call	#0x5ab0	
    68f8:	b0 12 a2 5a 	call	#0x5aa2	
    68fc:	4f 4b       	mov.b	r11,	r15	
    68fe:	b0 12 78 4d 	call	#0x4d78	
    6902:	b0 12 66 4d 	call	#0x4d66	
    6906:	82 43 0c 12 	mov	#0,	&0x120c	;r3 As==00
    690a:	81 4f 00 00 	mov	r15,	0(r1)	;0x0000(r1)
    690e:	b0 12 ee 48 	call	#0x48ee	
    6912:	b0 12 a2 5a 	call	#0x5aa2	
    6916:	f2 f0 fe ff 25 00 	and.b	#-2,	&0x0025	;#0xfffe
    691c:	f2 f0 fe ff 23 00 	and.b	#-2,	&0x0023	;#0xfffe
    6922:	2f 41       	mov	@r1,	r15	
    6924:	b0 12 78 4d 	call	#0x4d78	
    6928:	82 43 66 11 	mov	#0,	&0x1166	;r3 As==00
    692c:	b0 12 b0 68 	call	#0x68b0	
    6930:	b0 12 66 4d 	call	#0x4d66	
    6934:	f2 f0 df ff 1d 00 	and.b	#-33,	&0x001d	;#0xffdf
    693a:	b0 12 78 4d 	call	#0x4d78	
    693e:	b0 12 c0 68 	call	#0x68c0	
    6942:	7f 40 05 00 	mov.b	#5,	r15	;#0x0005
    6946:	b0 12 80 4d 	call	#0x4d80	
    694a:	21 53       	incd	r1		
    694c:	3b 41       	pop	r11		
    694e:	30 41       	ret			

00006950 <CC2420CsmaP__SplitControl__stop>:
    6950:	6f 43       	mov.b	#2,	r15	;r3 As==10
    6952:	b0 12 90 58 	call	#0x5890	
    6956:	4f 93       	tst.b	r15		
    6958:	08 24       	jz	$+18     	;abs 0x696a
    695a:	7e 40 03 00 	mov.b	#3,	r14	;#0x0003
    695e:	5f 43       	mov.b	#1,	r15	;r3 As==01
    6960:	b0 12 96 66 	call	#0x6696	
    6964:	b0 12 d0 68 	call	#0x68d0	
    6968:	15 3c       	jmp	$+44     	;abs 0x6994
    696a:	b0 12 90 58 	call	#0x5890	
    696e:	4f 93       	tst.b	r15		
    6970:	13 20       	jnz	$+40     	;abs 0x6998
    6972:	6f 42       	mov.b	#4,	r15	;r2 As==10
    6974:	b0 12 90 58 	call	#0x5890	
    6978:	4f 93       	tst.b	r15		
    697a:	06 24       	jz	$+14     	;abs 0x6988
    697c:	7e 40 03 00 	mov.b	#3,	r14	;#0x0003
    6980:	5f 43       	mov.b	#1,	r15	;r3 As==01
    6982:	b0 12 96 66 	call	#0x6696	
    6986:	06 3c       	jmp	$+14     	;abs 0x6994
    6988:	7f 40 03 00 	mov.b	#3,	r15	;#0x0003
    698c:	b0 12 90 58 	call	#0x5890	
    6990:	4f 93       	tst.b	r15		
    6992:	05 24       	jz	$+12     	;abs 0x699e
    6994:	4f 43       	clr.b	r15		
    6996:	30 41       	ret			
    6998:	7f 40 09 00 	mov.b	#9,	r15	;#0x0009
    699c:	30 41       	ret			
    699e:	7f 40 05 00 	mov.b	#5,	r15	;#0x0005
    69a2:	30 41       	ret			

000069a4 <CC2420ControlP__writeFsctrl>:
    69a4:	0b 12       	push	r11		
    69a6:	b0 12 66 4d 	call	#0x4d66	
    69aa:	5b 42 1d 15 	mov.b	&0x151d,r11	
    69ae:	b0 12 78 4d 	call	#0x4d78	
    69b2:	0f 4b       	mov	r11,	r15	
    69b4:	0f 5f       	rla	r15		
    69b6:	0f 5f       	rla	r15		
    69b8:	0f 5b       	add	r11,	r15	
    69ba:	3f 50 2e 01 	add	#302,	r15	;#0x012e
    69be:	0e 4f       	mov	r15,	r14	
    69c0:	3e d0 00 40 	bis	#16384,	r14	;#0x4000
    69c4:	7f 40 18 00 	mov.b	#24,	r15	;#0x0018
    69c8:	b0 12 e6 5f 	call	#0x5fe6	
    69cc:	3b 41       	pop	r11		
    69ce:	30 41       	ret			

000069d0 <CC2420ControlP__writeMdmctrl0>:
    69d0:	0b 12       	push	r11		
    69d2:	b0 12 66 4d 	call	#0x4d66	
    69d6:	4b 4f       	mov.b	r15,	r11	
    69d8:	c2 93 2a 12 	tst.b	&0x122a	
    69dc:	04 24       	jz	$+10     	;abs 0x69e6
    69de:	1e 43       	mov	#1,	r14	;r3 As==01
    69e0:	c2 93 2a 18 	tst.b	&0x182a	
    69e4:	01 20       	jnz	$+4      	;abs 0x69e8
    69e6:	0e 43       	clr	r14		
    69e8:	4e 4e       	mov.b	r14,	r14	
    69ea:	8e 10       	swpb	r14		
    69ec:	0e 5e       	rla	r14		
    69ee:	0e 5e       	rla	r14		
    69f0:	0e 5e       	rla	r14		
    69f2:	c2 93 cf 12 	tst.b	&0x12cf	
    69f6:	04 24       	jz	$+10     	;abs 0x6a00
    69f8:	1d 43       	mov	#1,	r13	;r3 As==01
    69fa:	c2 93 0e 15 	tst.b	&0x150e	
    69fe:	01 20       	jnz	$+4      	;abs 0x6a02
    6a00:	0d 43       	clr	r13		
    6a02:	3e d0 e2 22 	bis	#8930,	r14	;#0x22e2
    6a06:	0d 5d       	rla	r13		
    6a08:	0d 5d       	rla	r13		
    6a0a:	0d 5d       	rla	r13		
    6a0c:	0d 5d       	rla	r13		
    6a0e:	0e dd       	bis	r13,	r14	
    6a10:	7f 40 11 00 	mov.b	#17,	r15	;#0x0011
    6a14:	b0 12 e6 5f 	call	#0x5fe6	
    6a18:	4f 4b       	mov.b	r11,	r15	
    6a1a:	b0 12 78 4d 	call	#0x4d78	
    6a1e:	3b 41       	pop	r11		
    6a20:	30 41       	ret			

00006a22 <Msp430Adc12ImplP__SingleChannel__configureSingle.part.267>:
    6a22:	0b 12       	push	r11		
    6a24:	0a 12       	push	r10		
    6a26:	09 12       	push	r9		
    6a28:	08 12       	push	r8		
    6a2a:	07 12       	push	r7		
    6a2c:	4b 4f       	mov.b	r15,	r11	
    6a2e:	0a 4e       	mov	r14,	r10	
    6a30:	b0 12 66 4d 	call	#0x4d66	
    6a34:	48 4f       	mov.b	r15,	r8	
    6a36:	5e 42 38 13 	mov.b	&0x1338,r14	
    6a3a:	3e f0 20 00 	and	#32,	r14	;#0x0020
    6a3e:	05 24       	jz	$+12     	;abs 0x6a4a
    6a40:	b0 12 78 4d 	call	#0x4d78	
    6a44:	7b 40 05 00 	mov.b	#5,	r11	;#0x0005
    6a48:	5e 3c       	jmp	$+190    	;abs 0x6b06
    6a4a:	e2 93 2e 11 	cmp.b	#2,	&0x112e	;r3 As==10
    6a4e:	03 20       	jnz	$+8      	;abs 0x6a56
    6a50:	5e 42 06 11 	mov.b	&0x1106,r14	
    6a54:	01 3c       	jmp	$+4      	;abs 0x6a58
    6a56:	7e 43       	mov.b	#-1,	r14	;r3 As==11
    6a58:	4e 9b       	cmp.b	r11,	r14	
    6a5a:	51 20       	jnz	$+164    	;abs 0x6afe
    6a5c:	5c 4a 01 00 	mov.b	1(r10),	r12	;0x0001(r10)
    6a60:	3c f0 03 00 	and	#3,	r12	;#0x0003
    6a64:	0c 5c       	rla	r12		
    6a66:	0c 5c       	rla	r12		
    6a68:	0c 5c       	rla	r12		
    6a6a:	5d 4a 01 00 	mov.b	1(r10),	r13	;0x0001(r10)
    6a6e:	12 c3       	clrc			
    6a70:	4d 10       	rrc.b	r13		
    6a72:	12 c3       	clrc			
    6a74:	4d 10       	rrc.b	r13		
    6a76:	3d f0 07 00 	and	#7,	r13	;#0x0007
    6a7a:	0d 5d       	rla	r13		
    6a7c:	0d 5d       	rla	r13		
    6a7e:	0d 5d       	rla	r13		
    6a80:	0d 5d       	rla	r13		
    6a82:	0d 5d       	rla	r13		
    6a84:	09 4c       	mov	r12,	r9	
    6a86:	09 dd       	bis	r13,	r9	
    6a88:	39 d0 00 02 	bis	#512,	r9	;#0x0200
    6a8c:	67 4a       	mov.b	@r10,	r7	
    6a8e:	77 d0 80 ff 	bis.b	#-128,	r7	;#0xff80
    6a92:	b0 12 92 46 	call	#0x4692	
    6a96:	0b 4f       	mov	r15,	r11	
    6a98:	3b d0 80 00 	bis	#128,	r11	;#0x0080
    6a9c:	5d 4a 01 00 	mov.b	1(r10),	r13	;0x0001(r10)
    6aa0:	12 c3       	clrc			
    6aa2:	4d 10       	rrc.b	r13		
    6aa4:	12 c3       	clrc			
    6aa6:	4d 10       	rrc.b	r13		
    6aa8:	12 c3       	clrc			
    6aaa:	4d 10       	rrc.b	r13		
    6aac:	12 c3       	clrc			
    6aae:	4d 10       	rrc.b	r13		
    6ab0:	12 c3       	clrc			
    6ab2:	4d 10       	rrc.b	r13		
    6ab4:	5c 4a 02 00 	mov.b	2(r10),	r12	;0x0002(r10)
    6ab8:	1c f3       	and	#1,	r12	;r3 As==01
    6aba:	0c 5c       	rla	r12		
    6abc:	0c 5c       	rla	r12		
    6abe:	0c 5c       	rla	r12		
    6ac0:	4c dd       	bis.b	r13,	r12	
    6ac2:	4c 4c       	mov.b	r12,	r12	
    6ac4:	0f 4c       	mov	r12,	r15	
    6ac6:	8f 10       	swpb	r15		
    6ac8:	3b f0 ff f0 	and	#-3841,	r11	;#0xf0ff
    6acc:	0b df       	bis	r15,	r11	
    6ace:	0c 4f       	mov	r15,	r12	
    6ad0:	0c 5c       	rla	r12		
    6ad2:	0c 5c       	rla	r12		
    6ad4:	0c 5c       	rla	r12		
    6ad6:	0c 5c       	rla	r12		
    6ad8:	3b f0 ff 0f 	and	#4095,	r11	;#0x0fff
    6adc:	d2 43 38 13 	mov.b	#1,	&0x1338	;r3 As==01
    6ae0:	0f 4b       	mov	r11,	r15	
    6ae2:	0f dc       	bis	r12,	r15	
    6ae4:	b0 12 8c 46 	call	#0x468c	
    6ae8:	0f 49       	mov	r9,	r15	
    6aea:	b0 12 86 46 	call	#0x4686	
    6aee:	4e 47       	mov.b	r7,	r14	
    6af0:	4f 43       	clr.b	r15		
    6af2:	b0 12 78 46 	call	#0x4678	
    6af6:	92 43 a6 01 	mov	#1,	&0x01a6	;r3 As==01
    6afa:	4b 43       	clr.b	r11		
    6afc:	01 3c       	jmp	$+4      	;abs 0x6b00
    6afe:	7b 42       	mov.b	#8,	r11	;r2 As==11
    6b00:	4f 48       	mov.b	r8,	r15	
    6b02:	b0 12 78 4d 	call	#0x4d78	
    6b06:	4f 4b       	mov.b	r11,	r15	
    6b08:	37 41       	pop	r7		
    6b0a:	38 41       	pop	r8		
    6b0c:	39 41       	pop	r9		
    6b0e:	3a 41       	pop	r10		
    6b10:	3b 41       	pop	r11		
    6b12:	30 41       	ret			

00006b14 <SimpleArbiterP__0__Resource__release>:
    6b14:	0b 12       	push	r11		
    6b16:	0a 12       	push	r10		
    6b18:	09 12       	push	r9		
    6b1a:	08 12       	push	r8		
    6b1c:	4b 4f       	mov.b	r15,	r11	
    6b1e:	b0 12 66 4d 	call	#0x4d66	
    6b22:	49 4f       	mov.b	r15,	r9	
    6b24:	e2 93 2e 11 	cmp.b	#2,	&0x112e	;r3 As==10
    6b28:	3e 20       	jnz	$+126    	;abs 0x6ba6
    6b2a:	c2 9b 06 11 	cmp.b	r11,	&0x1106	
    6b2e:	3b 20       	jnz	$+120    	;abs 0x6ba6
    6b30:	c2 93 d2 13 	tst.b	&0x13d2	
    6b34:	05 20       	jnz	$+12     	;abs 0x6b40
    6b36:	f2 43 06 11 	mov.b	#-1,	&0x1106	;r3 As==11
    6b3a:	c2 43 2e 11 	mov.b	#0,	&0x112e	;r3 As==00
    6b3e:	2e 3c       	jmp	$+94     	;abs 0x6b9c
    6b40:	5f 42 30 11 	mov.b	&0x1130,r15	
    6b44:	0d 4f       	mov	r15,	r13	
    6b46:	1d 53       	inc	r13		
    6b48:	2d 93       	cmp	#2,	r13	;r3 As==10
    6b4a:	01 20       	jnz	$+4      	;abs 0x6b4e
    6b4c:	0d 43       	clr	r13		
    6b4e:	4b 4d       	mov.b	r13,	r11	
    6b50:	4e 4d       	mov.b	r13,	r14	
    6b52:	12 c3       	clrc			
    6b54:	4e 10       	rrc.b	r14		
    6b56:	12 c3       	clrc			
    6b58:	4e 10       	rrc.b	r14		
    6b5a:	12 c3       	clrc			
    6b5c:	4e 10       	rrc.b	r14		
    6b5e:	4e 4e       	mov.b	r14,	r14	
    6b60:	58 4e d2 13 	mov.b	5074(r14),r8	;0x13d2(r14)
    6b64:	1c 43       	mov	#1,	r12	;r3 As==01
    6b66:	4a 4b       	mov.b	r11,	r10	
    6b68:	7a f0 07 00 	and.b	#7,	r10	;#0x0007
    6b6c:	4a 93       	tst.b	r10		
    6b6e:	03 24       	jz	$+8      	;abs 0x6b76
    6b70:	0c 5c       	rla	r12		
    6b72:	7a 53       	add.b	#-1,	r10	;r3 As==11
    6b74:	fb 3f       	jmp	$-8      	;abs 0x6b6c
    6b76:	48 bc       	bit.b	r12,	r8	
    6b78:	06 24       	jz	$+14     	;abs 0x6b86
    6b7a:	48 cc       	bic.b	r12,	r8	
    6b7c:	ce 48 d2 13 	mov.b	r8,	5074(r14);0x13d2(r14)
    6b80:	c2 4b 30 11 	mov.b	r11,	&0x1130	
    6b84:	03 3c       	jmp	$+8      	;abs 0x6b8c
    6b86:	0d 9f       	cmp	r15,	r13	
    6b88:	de 23       	jnz	$-66     	;abs 0x6b46
    6b8a:	7b 43       	mov.b	#-1,	r11	;r3 As==11
    6b8c:	c2 4b 06 11 	mov.b	r11,	&0x1106	
    6b90:	d2 43 2e 11 	mov.b	#1,	&0x112e	;r3 As==01
    6b94:	7f 40 1d 00 	mov.b	#29,	r15	;#0x001d
    6b98:	b0 12 80 4d 	call	#0x4d80	
    6b9c:	4f 49       	mov.b	r9,	r15	
    6b9e:	b0 12 78 4d 	call	#0x4d78	
    6ba2:	4f 43       	clr.b	r15		
    6ba4:	04 3c       	jmp	$+10     	;abs 0x6bae
    6ba6:	4f 49       	mov.b	r9,	r15	
    6ba8:	b0 12 78 4d 	call	#0x4d78	
    6bac:	5f 43       	mov.b	#1,	r15	;r3 As==01
    6bae:	38 41       	pop	r8		
    6bb0:	39 41       	pop	r9		
    6bb2:	3a 41       	pop	r10		
    6bb4:	3b 41       	pop	r11		
    6bb6:	30 41       	ret			

00006bb8 <Msp430RefVoltArbiterImplP__AdcResource__release>:
    6bb8:	4f 93       	tst.b	r15		
    6bba:	02 24       	jz	$+6      	;abs 0x6bc0
    6bbc:	5f 93       	cmp.b	#1,	r15	;r3 As==01
    6bbe:	03 20       	jnz	$+8      	;abs 0x6bc6
    6bc0:	b0 12 14 6b 	call	#0x6b14	
    6bc4:	30 41       	ret			
    6bc6:	5f 43       	mov.b	#1,	r15	;r3 As==01
    6bc8:	30 41       	ret			

00006bca <AdcP__ResourceRead__release.part.269>:
    6bca:	c2 93 05 11 	tst.b	&0x1105	
    6bce:	04 20       	jnz	$+10     	;abs 0x6bd8
    6bd0:	7f 40 1e 00 	mov.b	#30,	r15	;#0x001e
    6bd4:	b0 12 80 4d 	call	#0x4d80	
    6bd8:	4f 43       	clr.b	r15		
    6bda:	b0 12 b8 6b 	call	#0x6bb8	
    6bde:	30 41       	ret			

00006be0 <Msp430RefVoltArbiterImplP__ClientResource__granted>:
    6be0:	4f 93       	tst.b	r15		
    6be2:	03 24       	jz	$+8      	;abs 0x6bea
    6be4:	5f 93       	cmp.b	#1,	r15	;r3 As==01
    6be6:	54 20       	jnz	$+170    	;abs 0x6c90
    6be8:	18 3c       	jmp	$+50     	;abs 0x6c1a
    6bea:	5e 42 e0 a0 	mov.b	&0xa0e0,r14	
    6bee:	7e f0 0f 00 	and.b	#15,	r14	;#0x000f
    6bf2:	7e 90 0c 00 	cmp.b	#12,	r14	;#0x000c
    6bf6:	0b 24       	jz	$+24     	;abs 0x6c0e
    6bf8:	3e 40 e0 a0 	mov	#-24352,r14	;#0xa0e0
    6bfc:	b0 12 22 6a 	call	#0x6a22	
    6c00:	4f 93       	tst.b	r15		
    6c02:	05 20       	jnz	$+12     	;abs 0x6c0e
    6c04:	c2 43 fa 12 	mov.b	#0,	&0x12fa	;r3 As==00
    6c08:	b0 12 d8 52 	call	#0x52d8	
    6c0c:	30 41       	ret			
    6c0e:	b0 12 ca 6b 	call	#0x6bca	
    6c12:	4f 43       	clr.b	r15		
    6c14:	b0 12 80 4d 	call	#0x4d80	
    6c18:	30 41       	ret			
    6c1a:	1e 42 84 12 	mov	&0x1284,r14	
    6c1e:	1f 42 86 12 	mov	&0x1286,r15	
    6c22:	0c 4e       	mov	r14,	r12	
    6c24:	0d 4f       	mov	r15,	r13	
    6c26:	0c f3       	and	#0,	r12	;r3 As==00
    6c28:	3d f3       	and	#-1,	r13	;r3 As==11
    6c2a:	0c 93       	tst	r12		
    6c2c:	02 20       	jnz	$+6      	;abs 0x6c32
    6c2e:	0d 93       	tst	r13		
    6c30:	20 24       	jz	$+66     	;abs 0x6c72
    6c32:	3c 40 e8 03 	mov	#1000,	r12	;#0x03e8
    6c36:	0d 43       	clr	r13		
    6c38:	b0 12 48 9e 	call	#0x9e48	
    6c3c:	82 4e 9e 14 	mov	r14,	&0x149e	
    6c40:	82 4f a0 14 	mov	r15,	&0x14a0	
    6c44:	d2 43 44 13 	mov.b	#1,	&0x1344	;r3 As==01
    6c48:	c2 43 04 11 	mov.b	#0,	&0x1104	;r3 As==00
    6c4c:	b0 12 0a 4e 	call	#0x4e0a	
    6c50:	82 4e 2e 18 	mov	r14,	&0x182e	
    6c54:	82 4f 30 18 	mov	r15,	&0x1830	
    6c58:	3e 40 e0 a0 	mov	#-24352,r14	;#0xa0e0
    6c5c:	5f 43       	mov.b	#1,	r15	;r3 As==01
    6c5e:	b0 12 22 6a 	call	#0x6a22	
    6c62:	4f 43       	clr.b	r15		
    6c64:	b0 12 d2 51 	call	#0x51d2	
    6c68:	4f 93       	tst.b	r15		
    6c6a:	12 20       	jnz	$+38     	;abs 0x6c90
    6c6c:	b0 12 1a 54 	call	#0x541a	
    6c70:	30 41       	ret			
    6c72:	82 4e 9e 14 	mov	r14,	&0x149e	
    6c76:	82 4f a0 14 	mov	r15,	&0x14a0	
    6c7a:	c2 43 44 13 	mov.b	#0,	&0x1344	;r3 As==00
    6c7e:	c2 43 04 11 	mov.b	#0,	&0x1104	;r3 As==00
    6c82:	4f 43       	clr.b	r15		
    6c84:	b0 12 d2 51 	call	#0x51d2	
    6c88:	4f 93       	tst.b	r15		
    6c8a:	02 20       	jnz	$+6      	;abs 0x6c90
    6c8c:	b0 12 28 54 	call	#0x5428	
    6c90:	30 41       	ret			

00006c92 <Msp430RefVoltGeneratorP__signalStartDone.isra.277>:
    6c92:	0e 4f       	mov	r15,	r14	
    6c94:	5f 42 05 11 	mov.b	&0x1105,r15	
    6c98:	1e 93       	cmp	#1,	r14	;r3 As==01
    6c9a:	03 24       	jz	$+8      	;abs 0x6ca2
    6c9c:	3e 90 03 00 	cmp	#3,	r14	;#0x0003
    6ca0:	05 20       	jnz	$+12     	;abs 0x6cac
    6ca2:	7f 93       	cmp.b	#-1,	r15	;r3 As==11
    6ca4:	07 24       	jz	$+16     	;abs 0x6cb4
    6ca6:	b0 12 e0 6b 	call	#0x6be0	
    6caa:	30 41       	ret			
    6cac:	7f 93       	cmp.b	#-1,	r15	;r3 As==11
    6cae:	02 24       	jz	$+6      	;abs 0x6cb4
    6cb0:	b0 12 e0 6b 	call	#0x6be0	
    6cb4:	30 41       	ret			

00006cb6 <AdcStreamP__ReadStream__readDone.isra.280.part.281>:
    6cb6:	d2 93 05 11 	cmp.b	#1,	&0x1105	;r3 As==01
    6cba:	04 20       	jnz	$+10     	;abs 0x6cc4
    6cbc:	7f 40 1e 00 	mov.b	#30,	r15	;#0x001e
    6cc0:	b0 12 80 4d 	call	#0x4d80	
    6cc4:	5f 43       	mov.b	#1,	r15	;r3 As==01
    6cc6:	b0 12 b8 6b 	call	#0x6bb8	
    6cca:	30 41       	ret			

00006ccc <Msp430RefVoltGeneratorP__switchOff>:
    6ccc:	0b 12       	push	r11		
    6cce:	0a 12       	push	r10		
    6cd0:	b0 12 66 4d 	call	#0x4d66	
    6cd4:	4a 4f       	mov.b	r15,	r10	
    6cd6:	1e 42 a2 01 	mov	&0x01a2,r14	
    6cda:	5e f3       	and.b	#1,	r14	;r3 As==01
    6cdc:	05 24       	jz	$+12     	;abs 0x6ce8
    6cde:	b0 12 78 4d 	call	#0x4d78	
    6ce2:	7f 40 05 00 	mov.b	#5,	r15	;#0x0005
    6ce6:	10 3c       	jmp	$+34     	;abs 0x6d08
    6ce8:	b0 12 6c 46 	call	#0x466c	
    6cec:	0b 4f       	mov	r15,	r11	
    6cee:	3f f0 fd ff 	and	#-3,	r15	;#0xfffd
    6cf2:	b0 12 72 46 	call	#0x4672	
    6cf6:	0f 4b       	mov	r11,	r15	
    6cf8:	3f f0 dd ff 	and	#-35,	r15	;#0xffdd
    6cfc:	b0 12 72 46 	call	#0x4672	
    6d00:	4f 4a       	mov.b	r10,	r15	
    6d02:	b0 12 78 4d 	call	#0x4d78	
    6d06:	4f 43       	clr.b	r15		
    6d08:	3a 41       	pop	r10		
    6d0a:	3b 41       	pop	r11		
    6d0c:	30 41       	ret			

00006d0e <Msp430RefVoltGeneratorP__stop>:
    6d0e:	0b 12       	push	r11		
    6d10:	1e 42 b4 17 	mov	&0x17b4,r14	
    6d14:	0e 93       	tst	r14		
    6d16:	26 24       	jz	$+78     	;abs 0x6d64
    6d18:	0d 4e       	mov	r14,	r13	
    6d1a:	3d 53       	add	#-1,	r13	;r3 As==11
    6d1c:	2d 93       	cmp	#2,	r13	;r3 As==10
    6d1e:	0a 2c       	jc	$+22     	;abs 0x6d34
    6d20:	82 4f b4 17 	mov	r15,	&0x17b4	
    6d24:	3d 40 14 00 	mov	#20,	r13	;#0x0014
    6d28:	0e 43       	clr	r14		
    6d2a:	7f 40 0a 00 	mov.b	#10,	r15	;#0x000a
    6d2e:	b0 12 a6 4f 	call	#0x4fa6	
    6d32:	16 3c       	jmp	$+46     	;abs 0x6d60
    6d34:	0d 4e       	mov	r14,	r13	
    6d36:	3d 50 fd ff 	add	#-3,	r13	;#0xfffd
    6d3a:	2d 93       	cmp	#2,	r13	;r3 As==10
    6d3c:	0f 2c       	jc	$+32     	;abs 0x6d5c
    6d3e:	b0 12 cc 6c 	call	#0x6ccc	
    6d42:	4b 4f       	mov.b	r15,	r11	
    6d44:	4f 93       	tst.b	r15		
    6d46:	13 20       	jnz	$+40     	;abs 0x6d6e
    6d48:	1f 42 b4 17 	mov	&0x17b4,r15	
    6d4c:	f2 f0 fd ff 36 14 	and.b	#-3,	&0x1436	;#0xfffd
    6d52:	82 43 b4 17 	mov	#0,	&0x17b4	;r3 As==00
    6d56:	b0 12 92 6c 	call	#0x6c92	
    6d5a:	09 3c       	jmp	$+20     	;abs 0x6d6e
    6d5c:	0e 9f       	cmp	r15,	r14	
    6d5e:	05 20       	jnz	$+12     	;abs 0x6d6a
    6d60:	4b 43       	clr.b	r11		
    6d62:	05 3c       	jmp	$+12     	;abs 0x6d6e
    6d64:	7b 40 09 00 	mov.b	#9,	r11	;#0x0009
    6d68:	02 3c       	jmp	$+6      	;abs 0x6d6e
    6d6a:	7b 40 05 00 	mov.b	#5,	r11	;#0x0005
    6d6e:	4f 4b       	mov.b	r11,	r15	
    6d70:	3b 41       	pop	r11		
    6d72:	30 41       	ret			

00006d74 <ArbiterP__1__Resource__release>:
    6d74:	0b 12       	push	r11		
    6d76:	0a 12       	push	r10		
    6d78:	4a 4f       	mov.b	r15,	r10	
    6d7a:	b0 12 66 4d 	call	#0x4d66	
    6d7e:	4b 4f       	mov.b	r15,	r11	
    6d80:	f2 90 03 00 26 11 	cmp.b	#3,	&0x1126	;#0x0003
    6d86:	2b 20       	jnz	$+88     	;abs 0x6dde
    6d88:	c2 9a 00 11 	cmp.b	r10,	&0x1100	
    6d8c:	28 20       	jnz	$+82     	;abs 0x6dde
    6d8e:	5d 42 02 11 	mov.b	&0x1102,r13	
    6d92:	7d 93       	cmp.b	#-1,	r13	;r3 As==11
    6d94:	15 24       	jz	$+44     	;abs 0x6dc0
    6d96:	4e 4d       	mov.b	r13,	r14	
    6d98:	3e 50 1e 18 	add	#6174,	r14	;#0x181e
    6d9c:	6f 4e       	mov.b	@r14,	r15	
    6d9e:	c2 4f 02 11 	mov.b	r15,	&0x1102	
    6da2:	7f 93       	cmp.b	#-1,	r15	;r3 As==11
    6da4:	02 20       	jnz	$+6      	;abs 0x6daa
    6da6:	f2 43 01 11 	mov.b	#-1,	&0x1101	;r3 As==11
    6daa:	fe 43 00 00 	mov.b	#-1,	0(r14)	;r3 As==11, 0x0000(r14)
    6dae:	c2 4d ce 12 	mov.b	r13,	&0x12ce	
    6db2:	f2 43 00 11 	mov.b	#-1,	&0x1100	;r3 As==11
    6db6:	d2 43 26 11 	mov.b	#1,	&0x1126	;r3 As==01
    6dba:	7f 40 25 00 	mov.b	#37,	r15	;#0x0025
    6dbe:	08 3c       	jmp	$+18     	;abs 0x6dd0
    6dc0:	e2 43 00 11 	mov.b	#2,	&0x1100	;r3 As==10
    6dc4:	c2 43 26 11 	mov.b	#0,	&0x1126	;r3 As==00
    6dc8:	d2 43 24 11 	mov.b	#1,	&0x1124	;r3 As==01
    6dcc:	7f 40 27 00 	mov.b	#39,	r15	;#0x0027
    6dd0:	b0 12 80 4d 	call	#0x4d80	
    6dd4:	4f 4b       	mov.b	r11,	r15	
    6dd6:	b0 12 78 4d 	call	#0x4d78	
    6dda:	4f 43       	clr.b	r15		
    6ddc:	04 3c       	jmp	$+10     	;abs 0x6de6
    6dde:	4f 4b       	mov.b	r11,	r15	
    6de0:	b0 12 78 4d 	call	#0x4d78	
    6de4:	5f 43       	mov.b	#1,	r15	;r3 As==01
    6de6:	3a 41       	pop	r10		
    6de8:	3b 41       	pop	r11		
    6dea:	30 41       	ret			

00006dec <VirtualizeTimerC__0__fireTimers>:
    6dec:	0b 12       	push	r11		
    6dee:	0a 12       	push	r10		
    6df0:	09 12       	push	r9		
    6df2:	08 12       	push	r8		
    6df4:	07 12       	push	r7		
    6df6:	06 12       	push	r6		
    6df8:	05 12       	push	r5		
    6dfa:	06 4e       	mov	r14,	r6	
    6dfc:	07 4f       	mov	r15,	r7	
    6dfe:	05 43       	clr	r5		
    6e00:	0e 45       	mov	r5,	r14	
    6e02:	0e 5e       	rla	r14		
    6e04:	0f 4e       	mov	r14,	r15	
    6e06:	0f 5f       	rla	r15		
    6e08:	0f 5f       	rla	r15		
    6e0a:	0f 5e       	add	r14,	r15	
    6e0c:	3f 50 d4 13 	add	#5076,	r15	;#0x13d4
    6e10:	5e 4f 08 00 	mov.b	8(r15),	r14	;0x0008(r15)
    6e14:	6e b3       	bit.b	#2,	r14	;r3 As==10
    6e16:	02 20       	jnz	$+6      	;abs 0x6e1c
    6e18:	30 40 0e 71 	br	#0x710e	
    6e1c:	2a 4f       	mov	@r15,	r10	
    6e1e:	1b 4f 02 00 	mov	2(r15),	r11	;0x0002(r15)
    6e22:	1c 4f 04 00 	mov	4(r15),	r12	;0x0004(r15)
    6e26:	1d 4f 06 00 	mov	6(r15),	r13	;0x0006(r15)
    6e2a:	08 46       	mov	r6,	r8	
    6e2c:	09 47       	mov	r7,	r9	
    6e2e:	08 8a       	sub	r10,	r8	
    6e30:	09 7b       	subc	r11,	r9	
    6e32:	09 9d       	cmp	r13,	r9	
    6e34:	02 2c       	jc	$+6      	;abs 0x6e3a
    6e36:	30 40 0e 71 	br	#0x710e	
    6e3a:	04 20       	jnz	$+10     	;abs 0x6e44
    6e3c:	08 9c       	cmp	r12,	r8	
    6e3e:	02 2c       	jc	$+6      	;abs 0x6e44
    6e40:	30 40 0e 71 	br	#0x710e	
    6e44:	5e f3       	and.b	#1,	r14	;r3 As==01
    6e46:	04 24       	jz	$+10     	;abs 0x6e50
    6e48:	ff f0 fd ff 08 00 	and.b	#-3,	8(r15)	;#0xfffd, 0x0008(r15)
    6e4e:	08 3c       	jmp	$+18     	;abs 0x6e60
    6e50:	08 4c       	mov	r12,	r8	
    6e52:	09 4d       	mov	r13,	r9	
    6e54:	08 5a       	add	r10,	r8	
    6e56:	09 6b       	addc	r11,	r9	
    6e58:	8f 48 00 00 	mov	r8,	0(r15)	;0x0000(r15)
    6e5c:	8f 49 02 00 	mov	r9,	2(r15)	;0x0002(r15)
    6e60:	75 53       	add.b	#-1,	r5	;r3 As==11
    6e62:	75 90 0e 00 	cmp.b	#14,	r5	;#0x000e
    6e66:	02 28       	jnc	$+6      	;abs 0x6e6c
    6e68:	30 40 1a 71 	br	#0x711a	
    6e6c:	4f 45       	mov.b	r5,	r15	
    6e6e:	0f 5f       	rla	r15		
    6e70:	10 4f 2e a0 	br	-24530(r15)	;0xa02e(r15)
    6e74:	b0 12 72 58 	call	#0x5872	
    6e78:	4f 93       	tst.b	r15		
    6e7a:	02 20       	jnz	$+6      	;abs 0x6e80
    6e7c:	30 40 1a 71 	br	#0x711a	
    6e80:	b0 12 66 4d 	call	#0x4d66	
    6e84:	5a 42 fb 14 	mov.b	&0x14fb,r10	
    6e88:	b0 12 78 4d 	call	#0x4d78	
    6e8c:	4a 93       	tst.b	r10		
    6e8e:	06 20       	jnz	$+14     	;abs 0x6e9c
    6e90:	82 43 32 18 	mov	#0,	&0x1832	;r3 As==00
    6e94:	7f 40 16 00 	mov.b	#22,	r15	;#0x0016
    6e98:	30 40 08 71 	br	#0x7108	
    6e9c:	1d 42 4e 11 	mov	&0x114e,r13	
    6ea0:	0e 43       	clr	r14		
    6ea2:	5f 43       	mov.b	#1,	r15	;r3 As==01
    6ea4:	d1 3c       	jmp	$+420    	;abs 0x7048
    6ea6:	b0 12 32 63 	call	#0x6332	
    6eaa:	4f 93       	tst.b	r15		
    6eac:	11 24       	jz	$+36     	;abs 0x6ed0
    6eae:	82 93 4e 11 	tst	&0x114e	
    6eb2:	02 20       	jnz	$+6      	;abs 0x6eb8
    6eb4:	30 40 1a 71 	br	#0x711a	
    6eb8:	b0 12 32 63 	call	#0x6332	
    6ebc:	4f 93       	tst.b	r15		
    6ebe:	02 20       	jnz	$+6      	;abs 0x6ec4
    6ec0:	30 40 1a 71 	br	#0x711a	
    6ec4:	b0 12 82 66 	call	#0x6682	
    6ec8:	4f 93       	tst.b	r15		
    6eca:	02 24       	jz	$+6      	;abs 0x6ed0
    6ecc:	30 40 1a 71 	br	#0x711a	
    6ed0:	7f 40 13 00 	mov.b	#19,	r15	;#0x0013
    6ed4:	30 40 08 71 	br	#0x7108	
    6ed8:	b0 12 82 66 	call	#0x6682	
    6edc:	6f 93       	cmp.b	#2,	r15	;r3 As==10
    6ede:	02 24       	jz	$+6      	;abs 0x6ee4
    6ee0:	30 40 1a 71 	br	#0x711a	
    6ee4:	7e 40 03 00 	mov.b	#3,	r14	;#0x0003
    6ee8:	7f 40 05 00 	mov.b	#5,	r15	;#0x0005
    6eec:	b0 12 96 66 	call	#0x6696	
    6ef0:	30 40 1a 71 	br	#0x711a	
    6ef4:	1c 42 0a 14 	mov	&0x140a,r12	
    6ef8:	1d 42 0c 14 	mov	&0x140c,r13	
    6efc:	1e 42 7c 11 	mov	&0x117c,r14	
    6f00:	1f 42 7e 11 	mov	&0x117e,r15	
    6f04:	0e 93       	tst	r14		
    6f06:	02 20       	jnz	$+6      	;abs 0x6f0c
    6f08:	0f 93       	tst	r15		
    6f0a:	19 24       	jz	$+52     	;abs 0x6f3e
    6f0c:	0e 9c       	cmp	r12,	r14	
    6f0e:	17 20       	jnz	$+48     	;abs 0x6f3e
    6f10:	0f 9d       	cmp	r13,	r15	
    6f12:	15 20       	jnz	$+44     	;abs 0x6f3e
    6f14:	c2 93 84 11 	tst.b	&0x1184	
    6f18:	0a 20       	jnz	$+22     	;abs 0x6f2e
    6f1a:	b0 12 66 4d 	call	#0x4d66	
    6f1e:	d2 d3 45 13 	bis.b	#1,	&0x1345	;r3 As==01
    6f22:	b0 12 78 4d 	call	#0x4d78	
    6f26:	7f 40 18 00 	mov.b	#24,	r15	;#0x0018
    6f2a:	b0 12 80 4d 	call	#0x4d80	
    6f2e:	0f 43       	clr	r15		
    6f30:	b0 12 b2 66 	call	#0x66b2	
    6f34:	4f 43       	clr.b	r15		
    6f36:	b0 12 46 5c 	call	#0x5c46	
    6f3a:	c2 43 84 11 	mov.b	#0,	&0x1184	;r3 As==00
    6f3e:	b0 12 e6 66 	call	#0x66e6	
    6f42:	30 40 1a 71 	br	#0x711a	
    6f46:	c2 93 38 11 	tst.b	&0x1138	
    6f4a:	02 20       	jnz	$+6      	;abs 0x6f50
    6f4c:	30 40 1a 71 	br	#0x711a	
    6f50:	c2 93 36 11 	tst.b	&0x1136	
    6f54:	02 20       	jnz	$+6      	;abs 0x6f5a
    6f56:	30 40 1a 71 	br	#0x711a	
    6f5a:	c2 93 aa 17 	tst.b	&0x17aa	
    6f5e:	15 20       	jnz	$+44     	;abs 0x6f8a
    6f60:	7f 40 1a 00 	mov.b	#26,	r15	;#0x001a
    6f64:	b0 12 80 4d 	call	#0x4d80	
    6f68:	7f 40 1b 00 	mov.b	#27,	r15	;#0x001b
    6f6c:	b0 12 80 4d 	call	#0x4d80	
    6f70:	1d 42 08 11 	mov	&0x1108,r13	
    6f74:	1e 42 0a 11 	mov	&0x110a,r14	
    6f78:	1d 82 88 12 	sub	&0x1288,r13	
    6f7c:	1e 72 8a 12 	subc	&0x128a,r14	
    6f80:	d2 43 aa 17 	mov.b	#1,	&0x17aa	;r3 As==01
    6f84:	7f 40 06 00 	mov.b	#6,	r15	;#0x0006
    6f88:	5f 3c       	jmp	$+192    	;abs 0x7048
    6f8a:	1e 42 08 11 	mov	&0x1108,r14	
    6f8e:	1f 42 0a 11 	mov	&0x110a,r15	
    6f92:	0e 5e       	rla	r14		
    6f94:	0f 6f       	rlc	r15		
    6f96:	82 4e 08 11 	mov	r14,	&0x1108	
    6f9a:	82 4f 0a 11 	mov	r15,	&0x110a	
    6f9e:	3f 90 07 00 	cmp	#7,	r15	;#0x0007
    6fa2:	0a 28       	jnc	$+22     	;abs 0x6fb8
    6fa4:	03 20       	jnz	$+8      	;abs 0x6fac
    6fa6:	3e 90 01 d0 	cmp	#-12287,r14	;#0xd001
    6faa:	06 28       	jnc	$+14     	;abs 0x6fb8
    6fac:	b2 40 00 d0 08 11 	mov	#-12288,&0x1108	;#0xd000
    6fb2:	b2 40 07 00 0a 11 	mov	#7,	&0x110a	;#0x0007
    6fb8:	b0 12 18 5d 	call	#0x5d18	
    6fbc:	ae 3c       	jmp	$+350    	;abs 0x711a
    6fbe:	c2 93 38 11 	tst.b	&0x1138	
    6fc2:	ab 24       	jz	$+344    	;abs 0x711a
    6fc4:	c2 93 36 11 	tst.b	&0x1136	
    6fc8:	a8 24       	jz	$+338    	;abs 0x711a
    6fca:	7f 40 1a 00 	mov.b	#26,	r15	;#0x001a
    6fce:	9c 3c       	jmp	$+314    	;abs 0x7108
    6fd0:	7f 40 10 00 	mov.b	#16,	r15	;#0x0010
    6fd4:	b0 12 98 46 	call	#0x4698	
    6fd8:	b0 12 00 4e 	call	#0x4e00	
    6fdc:	9e 3c       	jmp	$+318    	;abs 0x711a
    6fde:	1f 42 b4 17 	mov	&0x17b4,r15	
    6fe2:	3f 90 03 00 	cmp	#3,	r15	;#0x0003
    6fe6:	03 24       	jz	$+8      	;abs 0x6fee
    6fe8:	2f 92       	cmp	#4,	r15	;r2 As==10
    6fea:	97 20       	jnz	$+304    	;abs 0x711a
    6fec:	03 3c       	jmp	$+8      	;abs 0x6ff4
    6fee:	92 43 b4 17 	mov	#1,	&0x17b4	;r3 As==01
    6ff2:	02 3c       	jmp	$+6      	;abs 0x6ff8
    6ff4:	a2 43 b4 17 	mov	#2,	&0x17b4	;r3 As==10
    6ff8:	5f 42 05 11 	mov.b	&0x1105,r15	
    6ffc:	7f 93       	cmp.b	#-1,	r15	;r3 As==11
    6ffe:	8d 24       	jz	$+284    	;abs 0x711a
    7000:	b0 12 e0 6b 	call	#0x6be0	
    7004:	8a 3c       	jmp	$+278    	;abs 0x711a
    7006:	1f 42 b4 17 	mov	&0x17b4,r15	
    700a:	3f 90 05 00 	cmp	#5,	r15	;#0x0005
    700e:	04 24       	jz	$+10     	;abs 0x7018
    7010:	3f 90 06 00 	cmp	#6,	r15	;#0x0006
    7014:	82 20       	jnz	$+262    	;abs 0x711a
    7016:	07 3c       	jmp	$+16     	;abs 0x7026
    7018:	b0 12 cc 6c 	call	#0x6ccc	
    701c:	4f 93       	tst.b	r15		
    701e:	0f 20       	jnz	$+32     	;abs 0x703e
    7020:	82 43 b4 17 	mov	#0,	&0x17b4	;r3 As==00
    7024:	7a 3c       	jmp	$+246    	;abs 0x711a
    7026:	b0 12 cc 6c 	call	#0x6ccc	
    702a:	4f 93       	tst.b	r15		
    702c:	08 20       	jnz	$+18     	;abs 0x703e
    702e:	82 43 b4 17 	mov	#0,	&0x17b4	;r3 As==00
    7032:	3d 40 00 08 	mov	#2048,	r13	;#0x0800
    7036:	0e 43       	clr	r14		
    7038:	7f 40 0b 00 	mov.b	#11,	r15	;#0x000b
    703c:	05 3c       	jmp	$+12     	;abs 0x7048
    703e:	3d 40 14 00 	mov	#20,	r13	;#0x0014
    7042:	0e 43       	clr	r14		
    7044:	7f 40 0a 00 	mov.b	#10,	r15	;#0x000a
    7048:	b0 12 a6 4f 	call	#0x4fa6	
    704c:	66 3c       	jmp	$+206    	;abs 0x711a
    704e:	b0 12 66 4d 	call	#0x4d66	
    7052:	5e 42 26 11 	mov.b	&0x1126,r14	
    7056:	4e 93       	tst.b	r14		
    7058:	08 24       	jz	$+18     	;abs 0x706a
    705a:	e2 93 00 11 	cmp.b	#2,	&0x1100	;r3 As==10
    705e:	07 20       	jnz	$+16     	;abs 0x706e
    7060:	7e 53       	add.b	#-1,	r14	;r3 As==11
    7062:	1a 43       	mov	#1,	r10	;r3 As==01
    7064:	6e 93       	cmp.b	#2,	r14	;r3 As==10
    7066:	04 28       	jnc	$+10     	;abs 0x7070
    7068:	02 3c       	jmp	$+6      	;abs 0x706e
    706a:	1a 43       	mov	#1,	r10	;r3 As==01
    706c:	01 3c       	jmp	$+4      	;abs 0x7070
    706e:	0a 43       	clr	r10		
    7070:	b0 12 78 4d 	call	#0x4d78	
    7074:	4a 93       	tst.b	r10		
    7076:	51 24       	jz	$+164    	;abs 0x711a
    7078:	b0 12 66 4d 	call	#0x4d66	
    707c:	4a 4f       	mov.b	r15,	r10	
    707e:	e2 93 00 11 	cmp.b	#2,	&0x1100	;r3 As==10
    7082:	12 20       	jnz	$+38     	;abs 0x70a8
    7084:	5e 42 26 11 	mov.b	&0x1126,r14	
    7088:	5e 93       	cmp.b	#1,	r14	;r3 As==01
    708a:	05 20       	jnz	$+12     	;abs 0x7096
    708c:	7f 40 25 00 	mov.b	#37,	r15	;#0x0025
    7090:	b0 12 80 4d 	call	#0x4d80	
    7094:	09 3c       	jmp	$+20     	;abs 0x70a8
    7096:	6e 93       	cmp.b	#2,	r14	;r3 As==10
    7098:	07 20       	jnz	$+16     	;abs 0x70a8
    709a:	d2 42 ce 12 00 11 	mov.b	&0x12ce,&0x1100	
    70a0:	f2 40 03 00 26 11 	mov.b	#3,	&0x1126	;#0x0003
    70a6:	01 3c       	jmp	$+4      	;abs 0x70aa
    70a8:	4f 4a       	mov.b	r10,	r15	
    70aa:	b0 12 78 4d 	call	#0x4d78	
    70ae:	35 3c       	jmp	$+108    	;abs 0x711a
    70b0:	1f 42 be 11 	mov	&0x11be,r15	
    70b4:	3f 90 05 00 	cmp	#5,	r15	;#0x0005
    70b8:	13 24       	jz	$+40     	;abs 0x70e0
    70ba:	3f 90 1e 00 	cmp	#30,	r15	;#0x001e
    70be:	04 24       	jz	$+10     	;abs 0x70c8
    70c0:	3f 90 03 00 	cmp	#3,	r15	;#0x0003
    70c4:	2a 20       	jnz	$+86     	;abs 0x711a
    70c6:	03 3c       	jmp	$+8      	;abs 0x70ce
    70c8:	c2 43 2c 11 	mov.b	#0,	&0x112c	;r3 As==00
    70cc:	26 3c       	jmp	$+78     	;abs 0x711a
    70ce:	c2 43 2c 11 	mov.b	#0,	&0x112c	;r3 As==00
    70d2:	c2 93 34 18 	tst.b	&0x1834	
    70d6:	21 20       	jnz	$+68     	;abs 0x711a
    70d8:	4f 43       	clr.b	r15		
    70da:	b0 12 74 6d 	call	#0x6d74	
    70de:	13 3c       	jmp	$+40     	;abs 0x7106
    70e0:	c2 43 2c 11 	mov.b	#0,	&0x112c	;r3 As==00
    70e4:	d2 93 34 18 	cmp.b	#1,	&0x1834	;r3 As==01
    70e8:	18 20       	jnz	$+50     	;abs 0x711a
    70ea:	5f 43       	mov.b	#1,	r15	;r3 As==01
    70ec:	b0 12 74 6d 	call	#0x6d74	
    70f0:	14 3c       	jmp	$+42     	;abs 0x711a
    70f2:	b0 12 66 4d 	call	#0x4d66	
    70f6:	f2 e0 20 00 31 00 	xor.b	#32,	&0x0031	;#0x0020
    70fc:	b0 12 78 4d 	call	#0x4d78	
    7100:	c2 93 72 11 	tst.b	&0x1172	
    7104:	0a 20       	jnz	$+22     	;abs 0x711a
    7106:	4f 43       	clr.b	r15		
    7108:	b0 12 80 4d 	call	#0x4d80	
    710c:	06 3c       	jmp	$+14     	;abs 0x711a
    710e:	15 53       	inc	r5		
    7110:	35 90 0f 00 	cmp	#15,	r5	;#0x000f
    7114:	02 24       	jz	$+6      	;abs 0x711a
    7116:	30 40 00 6e 	br	#0x6e00	
    711a:	7f 40 0e 00 	mov.b	#14,	r15	;#0x000e
    711e:	b0 12 80 4d 	call	#0x4d80	
    7122:	35 41       	pop	r5		
    7124:	36 41       	pop	r6		
    7126:	37 41       	pop	r7		
    7128:	38 41       	pop	r8		
    712a:	39 41       	pop	r9		
    712c:	3a 41       	pop	r10		
    712e:	3b 41       	pop	r11		
    7130:	30 41       	ret			

00007132 <CC2420CsmaP__SplitControl__start>:
    7132:	5e 43       	mov.b	#1,	r14	;r3 As==01
    7134:	5f 43       	mov.b	#1,	r15	;r3 As==01
    7136:	b0 12 b6 59 	call	#0x59b6	
    713a:	4f 93       	tst.b	r15		
    713c:	19 20       	jnz	$+52     	;abs 0x7170
    713e:	b0 12 66 4d 	call	#0x4d66	
    7142:	82 93 66 11 	tst	&0x1166	
    7146:	03 24       	jz	$+8      	;abs 0x714e
    7148:	b0 12 78 4d 	call	#0x4d78	
    714c:	1b 3c       	jmp	$+56     	;abs 0x7184
    714e:	92 43 66 11 	mov	#1,	&0x1166	;r3 As==01
    7152:	b0 12 78 4d 	call	#0x4d78	
    7156:	b0 12 66 4d 	call	#0x4d66	
    715a:	f2 d0 20 00 1d 00 	bis.b	#32,	&0x001d	;#0x0020
    7160:	b0 12 78 4d 	call	#0x4d78	
    7164:	3e 40 14 00 	mov	#20,	r14	;#0x0014
    7168:	0f 43       	clr	r15		
    716a:	b0 12 a6 5e 	call	#0x5ea6	
    716e:	0a 3c       	jmp	$+22     	;abs 0x7184
    7170:	6f 43       	mov.b	#2,	r15	;r3 As==10
    7172:	b0 12 90 58 	call	#0x5890	
    7176:	4f 93       	tst.b	r15		
    7178:	0a 20       	jnz	$+22     	;abs 0x718e
    717a:	5f 43       	mov.b	#1,	r15	;r3 As==01
    717c:	b0 12 90 58 	call	#0x5890	
    7180:	4f 93       	tst.b	r15		
    7182:	02 24       	jz	$+6      	;abs 0x7188
    7184:	4f 43       	clr.b	r15		
    7186:	30 41       	ret			
    7188:	7f 40 05 00 	mov.b	#5,	r15	;#0x0005
    718c:	30 41       	ret			
    718e:	7f 40 09 00 	mov.b	#9,	r15	;#0x0009
    7192:	30 41       	ret			

00007194 <Msp430RefVoltGeneratorP__switchOn>:
    7194:	0b 12       	push	r11		
    7196:	0a 12       	push	r10		
    7198:	09 12       	push	r9		
    719a:	49 4f       	mov.b	r15,	r9	
    719c:	b0 12 66 4d 	call	#0x4d66	
    71a0:	4a 4f       	mov.b	r15,	r10	
    71a2:	1e 42 a2 01 	mov	&0x01a2,r14	
    71a6:	5e f3       	and.b	#1,	r14	;r3 As==01
    71a8:	05 24       	jz	$+12     	;abs 0x71b4
    71aa:	b0 12 78 4d 	call	#0x4d78	
    71ae:	7f 40 05 00 	mov.b	#5,	r15	;#0x0005
    71b2:	1c 3c       	jmp	$+58     	;abs 0x71ec
    71b4:	b0 12 6c 46 	call	#0x466c	
    71b8:	0b 4f       	mov	r15,	r11	
    71ba:	3b f0 fd ff 	and	#-3,	r11	;#0xfffd
    71be:	0f 4b       	mov	r11,	r15	
    71c0:	b0 12 72 46 	call	#0x4672	
    71c4:	3b d0 20 00 	bis	#32,	r11	;#0x0020
    71c8:	4e 49       	mov.b	r9,	r14	
    71ca:	7e 53       	add.b	#-1,	r14	;r3 As==11
    71cc:	1e f3       	and	#1,	r14	;r3 As==01
    71ce:	7d 40 06 00 	mov.b	#6,	r13	;#0x0006
    71d2:	0e 5e       	rla	r14		
    71d4:	7d 53       	add.b	#-1,	r13	;r3 As==11
    71d6:	fd 23       	jnz	$-4      	;abs 0x71d2
    71d8:	3b f0 bf ff 	and	#-65,	r11	;#0xffbf
    71dc:	0f 4b       	mov	r11,	r15	
    71de:	0f de       	bis	r14,	r15	
    71e0:	b0 12 72 46 	call	#0x4672	
    71e4:	4f 4a       	mov.b	r10,	r15	
    71e6:	b0 12 78 4d 	call	#0x4d78	
    71ea:	4f 43       	clr.b	r15		
    71ec:	39 41       	pop	r9		
    71ee:	3a 41       	pop	r10		
    71f0:	3b 41       	pop	r11		
    71f2:	30 41       	ret			

000071f4 <Msp430RefVoltGeneratorP__start>:
    71f4:	0b 12       	push	r11		
    71f6:	0a 12       	push	r10		
    71f8:	0b 4f       	mov	r15,	r11	
    71fa:	1f 42 b4 17 	mov	&0x17b4,r15	
    71fe:	0e 4f       	mov	r15,	r14	
    7200:	3e 53       	add	#-1,	r14	;r3 As==11
    7202:	2e 93       	cmp	#2,	r14	;r3 As==10
    7204:	0c 2c       	jc	$+26     	;abs 0x721e
    7206:	0b 9f       	cmp	r15,	r11	
    7208:	5f 24       	jz	$+192    	;abs 0x72c8
    720a:	4f 4b       	mov.b	r11,	r15	
    720c:	b0 12 94 71 	call	#0x7194	
    7210:	4a 4f       	mov.b	r15,	r10	
    7212:	4f 93       	tst.b	r15		
    7214:	5e 20       	jnz	$+190    	;abs 0x72d2
    7216:	92 93 b4 17 	cmp	#1,	&0x17b4	;r3 As==01
    721a:	46 20       	jnz	$+142    	;abs 0x72a8
    721c:	3f 3c       	jmp	$+128    	;abs 0x729c
    721e:	0f 93       	tst	r15		
    7220:	20 20       	jnz	$+66     	;abs 0x7262
    7222:	4f 4b       	mov.b	r11,	r15	
    7224:	b0 12 94 71 	call	#0x7194	
    7228:	4a 4f       	mov.b	r15,	r10	
    722a:	4f 93       	tst.b	r15		
    722c:	52 20       	jnz	$+166    	;abs 0x72d2
    722e:	1b 93       	cmp	#1,	r11	;r3 As==01
    7230:	0a 20       	jnz	$+22     	;abs 0x7246
    7232:	e2 b3 4a 14 	bit.b	#2,	&0x144a	;r3 As==10
    7236:	0f 43       	clr	r15		
    7238:	0f 6f       	rlc	r15		
    723a:	4f 93       	tst.b	r15		
    723c:	04 24       	jz	$+10     	;abs 0x7246
    723e:	3d 40 46 00 	mov	#70,	r13	;#0x0046
    7242:	0e 43       	clr	r14		
    7244:	03 3c       	jmp	$+8      	;abs 0x724c
    7246:	3d 40 11 00 	mov	#17,	r13	;#0x0011
    724a:	0e 43       	clr	r14		
    724c:	7f 40 09 00 	mov.b	#9,	r15	;#0x0009
    7250:	b0 12 a6 4f 	call	#0x4fa6	
    7254:	f2 f0 fd ff 4a 14 	and.b	#-3,	&0x144a	;#0xfffd
    725a:	2b 53       	incd	r11		
    725c:	82 4b b4 17 	mov	r11,	&0x17b4	
    7260:	38 3c       	jmp	$+114    	;abs 0x72d2
    7262:	0e 4f       	mov	r15,	r14	
    7264:	3e 50 fb ff 	add	#-5,	r14	;#0xfffb
    7268:	2e 93       	cmp	#2,	r14	;r3 As==10
    726a:	29 2c       	jc	$+84     	;abs 0x72be
    726c:	4f 4b       	mov.b	r11,	r15	
    726e:	b0 12 94 71 	call	#0x7194	
    7272:	4a 4f       	mov.b	r15,	r10	
    7274:	4f 93       	tst.b	r15		
    7276:	2d 20       	jnz	$+92     	;abs 0x72d2
    7278:	f2 f0 fd ff 40 14 	and.b	#-3,	&0x1440	;#0xfffd
    727e:	1f 42 b4 17 	mov	&0x17b4,r15	
    7282:	0e 4f       	mov	r15,	r14	
    7284:	2e 82       	sub	#4,	r14	;r2 As==10
    7286:	0b 9e       	cmp	r14,	r11	
    7288:	06 20       	jnz	$+14     	;abs 0x7296
    728a:	82 4b b4 17 	mov	r11,	&0x17b4	
    728e:	0f 4b       	mov	r11,	r15	
    7290:	b0 12 92 6c 	call	#0x6c92	
    7294:	1e 3c       	jmp	$+62     	;abs 0x72d2
    7296:	3f 90 05 00 	cmp	#5,	r15	;#0x0005
    729a:	06 20       	jnz	$+14     	;abs 0x72a8
    729c:	a2 42 b4 17 	mov	#4,	&0x17b4	;r2 As==10
    72a0:	3d 40 11 00 	mov	#17,	r13	;#0x0011
    72a4:	0e 43       	clr	r14		
    72a6:	06 3c       	jmp	$+14     	;abs 0x72b4
    72a8:	b2 40 03 00 b4 17 	mov	#3,	&0x17b4	;#0x0003
    72ae:	3d 40 46 00 	mov	#70,	r13	;#0x0046
    72b2:	0e 43       	clr	r14		
    72b4:	7f 40 09 00 	mov.b	#9,	r15	;#0x0009
    72b8:	b0 12 a6 4f 	call	#0x4fa6	
    72bc:	0a 3c       	jmp	$+22     	;abs 0x72d2
    72be:	2b 53       	incd	r11		
    72c0:	0f 9b       	cmp	r11,	r15	
    72c2:	05 20       	jnz	$+12     	;abs 0x72ce
    72c4:	4a 43       	clr.b	r10		
    72c6:	05 3c       	jmp	$+12     	;abs 0x72d2
    72c8:	7a 40 09 00 	mov.b	#9,	r10	;#0x0009
    72cc:	02 3c       	jmp	$+6      	;abs 0x72d2
    72ce:	7a 40 05 00 	mov.b	#5,	r10	;#0x0005
    72d2:	4f 4a       	mov.b	r10,	r15	
    72d4:	3a 41       	pop	r10		
    72d6:	3b 41       	pop	r11		
    72d8:	30 41       	ret			

000072da <Msp430RefVoltArbiterImplP__AdcResource__granted>:
    72da:	0b 12       	push	r11		
    72dc:	4b 4f       	mov.b	r15,	r11	
    72de:	6f 93       	cmp.b	#2,	r15	;r3 As==10
    72e0:	03 28       	jnc	$+8      	;abs 0x72e8
    72e2:	3f 40 e8 a0 	mov	#-24344,r15	;#0xa0e8
    72e6:	02 3c       	jmp	$+6      	;abs 0x72ec
    72e8:	3f 40 e0 a0 	mov	#-24352,r15	;#0xa0e0
    72ec:	6f 4f       	mov.b	@r15,	r15	
    72ee:	4e 4f       	mov.b	r15,	r14	
    72f0:	7e f0 70 00 	and.b	#112,	r14	;#0x0070
    72f4:	7e 90 10 00 	cmp.b	#16,	r14	;#0x0010
    72f8:	03 24       	jz	$+8      	;abs 0x7300
    72fa:	7e 90 50 00 	cmp.b	#80,	r14	;#0x0050
    72fe:	1b 20       	jnz	$+56     	;abs 0x7336
    7300:	f2 93 05 11 	cmp.b	#-1,	&0x1105	;r3 As==11
    7304:	11 20       	jnz	$+36     	;abs 0x7328
    7306:	c2 4b 05 11 	mov.b	r11,	&0x1105	
    730a:	4f 93       	tst.b	r15		
    730c:	04 38       	jl	$+10     	;abs 0x7316
    730e:	c2 43 ab 17 	mov.b	#0,	&0x17ab	;r3 As==00
    7312:	1f 43       	mov	#1,	r15	;r3 As==01
    7314:	03 3c       	jmp	$+8      	;abs 0x731c
    7316:	d2 43 ab 17 	mov.b	#1,	&0x17ab	;r3 As==01
    731a:	2f 43       	mov	#2,	r15	;r3 As==10
    731c:	b0 12 f4 71 	call	#0x71f4	
    7320:	4f 93       	tst.b	r15		
    7322:	0c 24       	jz	$+26     	;abs 0x733c
    7324:	f2 43 05 11 	mov.b	#-1,	&0x1105	;r3 As==11
    7328:	4f 4b       	mov.b	r11,	r15	
    732a:	b0 12 b8 6b 	call	#0x6bb8	
    732e:	4f 4b       	mov.b	r11,	r15	
    7330:	b0 12 94 61 	call	#0x6194	
    7334:	03 3c       	jmp	$+8      	;abs 0x733c
    7336:	4f 4b       	mov.b	r11,	r15	
    7338:	b0 12 e0 6b 	call	#0x6be0	
    733c:	3b 41       	pop	r11		
    733e:	30 41       	ret			

00007340 <SensirionSht11LogicP__0__CLOCK__set>:
    7340:	b0 12 66 4d 	call	#0x4d66	
    7344:	f2 d0 40 00 21 00 	bis.b	#64,	&0x0021	;#0x0040
    734a:	b0 12 78 4d 	call	#0x4d78	
    734e:	30 41       	ret			

00007350 <Msp430GpioC__12__GeneralIO__clr>:
    7350:	b0 12 66 4d 	call	#0x4d66	
    7354:	f2 f0 bf ff 21 00 	and.b	#-65,	&0x0021	;#0xffbf
    735a:	b0 12 78 4d 	call	#0x4d78	
    735e:	30 41       	ret			

00007360 <SensirionSht11LogicP__0__DATA__makeOutput>:
    7360:	b0 12 66 4d 	call	#0x4d66	
    7364:	f2 d0 20 00 22 00 	bis.b	#32,	&0x0022	;#0x0020
    736a:	b0 12 78 4d 	call	#0x4d78	
    736e:	30 41       	ret			

00007370 <Msp430GpioC__11__GeneralIO__clr>:
    7370:	b0 12 66 4d 	call	#0x4d66	
    7374:	f2 f0 df ff 21 00 	and.b	#-33,	&0x0021	;#0xffdf
    737a:	b0 12 78 4d 	call	#0x4d78	
    737e:	30 41       	ret			

00007380 <Msp430GpioC__11__GeneralIO__makeInput>:
    7380:	b0 12 66 4d 	call	#0x4d66	
    7384:	f2 f0 df ff 22 00 	and.b	#-33,	&0x0022	;#0xffdf
    738a:	b0 12 78 4d 	call	#0x4d78	
    738e:	30 41       	ret			

00007390 <SensirionSht11LogicP__0__DATA__set>:
    7390:	b0 12 66 4d 	call	#0x4d66	
    7394:	f2 d0 20 00 21 00 	bis.b	#32,	&0x0021	;#0x0020
    739a:	b0 12 78 4d 	call	#0x4d78	
    739e:	30 41       	ret			

000073a0 <SensirionSht11LogicP__0__readByte>:
    73a0:	0b 12       	push	r11		
    73a2:	0a 12       	push	r10		
    73a4:	4a 43       	clr.b	r10		
    73a6:	4b 43       	clr.b	r11		
    73a8:	b0 12 40 73 	call	#0x7340	
    73ac:	f2 b0 20 00 20 00 	bit.b	#32,	&0x0020	;#0x0020
    73b2:	01 24       	jz	$+4      	;abs 0x73b6
    73b4:	5b d3       	bis.b	#1,	r11	;r3 As==01
    73b6:	7a 90 07 00 	cmp.b	#7,	r10	;#0x0007
    73ba:	01 24       	jz	$+4      	;abs 0x73be
    73bc:	4b 5b       	rla.b	r11		
    73be:	b0 12 50 73 	call	#0x7350	
    73c2:	5a 53       	inc.b	r10		
    73c4:	7a 92       	cmp.b	#8,	r10	;r2 As==11
    73c6:	f0 23       	jnz	$-30     	;abs 0x73a8
    73c8:	b0 12 60 73 	call	#0x7360	
    73cc:	b0 12 70 73 	call	#0x7370	
    73d0:	b0 12 40 73 	call	#0x7340	
    73d4:	b0 12 50 73 	call	#0x7350	
    73d8:	b0 12 80 73 	call	#0x7380	
    73dc:	b0 12 90 73 	call	#0x7390	
    73e0:	4f 4b       	mov.b	r11,	r15	
    73e2:	3a 41       	pop	r10		
    73e4:	3b 41       	pop	r11		
    73e6:	30 41       	ret			

000073e8 <SensirionSht11LogicP__0__writeByte>:
    73e8:	0b 12       	push	r11		
    73ea:	0a 12       	push	r10		
    73ec:	4b 4f       	mov.b	r15,	r11	
    73ee:	7a 42       	mov.b	#8,	r10	;r2 As==11
    73f0:	4b 93       	tst.b	r11		
    73f2:	03 34       	jge	$+8      	;abs 0x73fa
    73f4:	b0 12 90 73 	call	#0x7390	
    73f8:	02 3c       	jmp	$+6      	;abs 0x73fe
    73fa:	b0 12 70 73 	call	#0x7370	
    73fe:	4b 5b       	rla.b	r11		
    7400:	b0 12 40 73 	call	#0x7340	
    7404:	b0 12 50 73 	call	#0x7350	
    7408:	7a 53       	add.b	#-1,	r10	;r3 As==11
    740a:	f2 23       	jnz	$-26     	;abs 0x73f0
    740c:	3a 41       	pop	r10		
    740e:	3b 41       	pop	r11		
    7410:	30 41       	ret			

00007412 <SensirionSht11LogicP__0__waitForResponse>:
    7412:	b0 12 80 73 	call	#0x7380	
    7416:	b0 12 90 73 	call	#0x7390	
    741a:	b0 12 40 73 	call	#0x7340	
    741e:	f2 b0 20 00 20 00 	bit.b	#32,	&0x0020	;#0x0020
    7424:	04 20       	jnz	$+10     	;abs 0x742e
    7426:	b0 12 50 73 	call	#0x7350	
    742a:	4f 43       	clr.b	r15		
    742c:	30 41       	ret			
    742e:	5f 43       	mov.b	#1,	r15	;r3 As==01
    7430:	30 41       	ret			

00007432 <PowerManagerP__0__SplitControl__start>:
    7432:	b0 12 66 4d 	call	#0x4d66	
    7436:	f2 d0 80 ff 22 00 	bis.b	#-128,	&0x0022	;#0xff80
    743c:	b0 12 78 4d 	call	#0x4d78	
    7440:	b0 12 66 4d 	call	#0x4d66	
    7444:	f2 d0 80 ff 21 00 	bis.b	#-128,	&0x0021	;#0xff80
    744a:	b0 12 78 4d 	call	#0x4d78	
    744e:	3d 40 0b 00 	mov	#11,	r13	;#0x000b
    7452:	0e 43       	clr	r14		
    7454:	7f 40 0c 00 	mov.b	#12,	r15	;#0x000c
    7458:	b0 12 a6 4f 	call	#0x4fa6	
    745c:	4f 43       	clr.b	r15		
    745e:	30 41       	ret			

00007460 <SensirionSht11LogicP__0__enableInterrupt>:
    7460:	0b 12       	push	r11		
    7462:	b0 12 80 73 	call	#0x7380	
    7466:	b0 12 90 73 	call	#0x7390	
    746a:	b0 12 66 4d 	call	#0x4d66	
    746e:	4b 4f       	mov.b	r15,	r11	
    7470:	b0 12 f4 60 	call	#0x60f4	
    7474:	f2 d0 20 00 24 00 	bis.b	#32,	&0x0024	;#0x0020
    747a:	f2 d0 20 00 25 00 	bis.b	#32,	&0x0025	;#0x0020
    7480:	4f 4b       	mov.b	r11,	r15	
    7482:	b0 12 78 4d 	call	#0x4d78	
    7486:	3b 41       	pop	r11		
    7488:	30 41       	ret			

0000748a <SensirionSht11LogicP__0__performCommand>:
    748a:	0b 12       	push	r11		
    748c:	b0 12 66 4d 	call	#0x4d66	
    7490:	f2 d0 40 00 22 00 	bis.b	#64,	&0x0022	;#0x0040
    7496:	b0 12 78 4d 	call	#0x4d78	
    749a:	b0 12 50 73 	call	#0x7350	
    749e:	b0 12 80 73 	call	#0x7380	
    74a2:	b0 12 90 73 	call	#0x7390	
    74a6:	b0 12 f4 60 	call	#0x60f4	
    74aa:	b0 12 60 73 	call	#0x7360	
    74ae:	b0 12 90 73 	call	#0x7390	
    74b2:	b0 12 50 73 	call	#0x7350	
    74b6:	7b 40 09 00 	mov.b	#9,	r11	;#0x0009
    74ba:	b0 12 40 73 	call	#0x7340	
    74be:	b0 12 50 73 	call	#0x7350	
    74c2:	7b 53       	add.b	#-1,	r11	;r3 As==11
    74c4:	fa 23       	jnz	$-10     	;abs 0x74ba
    74c6:	b0 12 60 73 	call	#0x7360	
    74ca:	b0 12 90 73 	call	#0x7390	
    74ce:	b0 12 50 73 	call	#0x7350	
    74d2:	b0 12 40 73 	call	#0x7340	
    74d6:	b0 12 70 73 	call	#0x7370	
    74da:	b0 12 50 73 	call	#0x7350	
    74de:	b0 12 40 73 	call	#0x7340	
    74e2:	b0 12 90 73 	call	#0x7390	
    74e6:	b0 12 50 73 	call	#0x7350	
    74ea:	1f 42 be 11 	mov	&0x11be,r15	
    74ee:	3f f0 1f 00 	and	#31,	r15	;#0x001f
    74f2:	82 4f be 11 	mov	r15,	&0x11be	
    74f6:	4f 4f       	mov.b	r15,	r15	
    74f8:	b0 12 e8 73 	call	#0x73e8	
    74fc:	b0 12 12 74 	call	#0x7412	
    7500:	4f 93       	tst.b	r15		
    7502:	04 24       	jz	$+10     	;abs 0x750c
    7504:	c2 43 2c 11 	mov.b	#0,	&0x112c	;r3 As==00
    7508:	5f 43       	mov.b	#1,	r15	;r3 As==01
    750a:	53 3c       	jmp	$+168    	;abs 0x75b2
    750c:	1f 42 be 11 	mov	&0x11be,r15	
    7510:	3f 90 06 00 	cmp	#6,	r15	;#0x0006
    7514:	3b 24       	jz	$+120    	;abs 0x758c
    7516:	3f 90 07 00 	cmp	#7,	r15	;#0x0007
    751a:	07 2c       	jc	$+16     	;abs 0x752a
    751c:	3f 90 03 00 	cmp	#3,	r15	;#0x0003
    7520:	0e 24       	jz	$+30     	;abs 0x753e
    7522:	3f 90 05 00 	cmp	#5,	r15	;#0x0005
    7526:	44 20       	jnz	$+138    	;abs 0x75b0
    7528:	14 3c       	jmp	$+42     	;abs 0x7552
    752a:	3f 90 07 00 	cmp	#7,	r15	;#0x0007
    752e:	1b 24       	jz	$+56     	;abs 0x7566
    7530:	3f 90 1e 00 	cmp	#30,	r15	;#0x001e
    7534:	3d 20       	jnz	$+124    	;abs 0x75b0
    7536:	3d 40 0b 00 	mov	#11,	r13	;#0x000b
    753a:	0e 43       	clr	r14		
    753c:	0f 3c       	jmp	$+32     	;abs 0x755c
    753e:	b0 12 60 74 	call	#0x7460	
    7542:	5f 42 2a 11 	mov.b	&0x112a,r15	
    7546:	1f f3       	and	#1,	r15	;r3 As==01
    7548:	06 20       	jnz	$+14     	;abs 0x7556
    754a:	3d 40 4a 01 	mov	#330,	r13	;#0x014a
    754e:	0e 43       	clr	r14		
    7550:	05 3c       	jmp	$+12     	;abs 0x755c
    7552:	b0 12 60 74 	call	#0x7460	
    7556:	3d 40 fa 00 	mov	#250,	r13	;#0x00fa
    755a:	0e 43       	clr	r14		
    755c:	7f 40 0d 00 	mov.b	#13,	r15	;#0x000d
    7560:	b0 12 a6 4f 	call	#0x4fa6	
    7564:	25 3c       	jmp	$+76     	;abs 0x75b0
    7566:	b0 12 a0 73 	call	#0x73a0	
    756a:	4b 4f       	mov.b	r15,	r11	
    756c:	b0 12 a0 73 	call	#0x73a0	
    7570:	b0 12 60 73 	call	#0x7360	
    7574:	b0 12 90 73 	call	#0x7390	
    7578:	b0 12 40 73 	call	#0x7340	
    757c:	b0 12 50 73 	call	#0x7350	
    7580:	c2 4b 2a 11 	mov.b	r11,	&0x112a	
    7584:	7f 40 23 00 	mov.b	#35,	r15	;#0x0023
    7588:	b0 12 80 4d 	call	#0x4d80	
    758c:	5f 42 ac 17 	mov.b	&0x17ac,r15	
    7590:	b0 12 e8 73 	call	#0x73e8	
    7594:	b0 12 12 74 	call	#0x7412	
    7598:	4f 93       	tst.b	r15		
    759a:	03 24       	jz	$+8      	;abs 0x75a2
    759c:	d2 43 28 11 	mov.b	#1,	&0x1128	;r3 As==01
    75a0:	03 3c       	jmp	$+8      	;abs 0x75a8
    75a2:	d2 42 ac 17 2a 11 	mov.b	&0x17ac,&0x112a	
    75a8:	7f 40 23 00 	mov.b	#35,	r15	;#0x0023
    75ac:	b0 12 80 4d 	call	#0x4d80	
    75b0:	4f 43       	clr.b	r15		
    75b2:	3b 41       	pop	r11		
    75b4:	30 41       	ret			

000075b6 <HplMsp430Usart0P__Usart__setModeSpi.constprop.295>:
    75b6:	0b 12       	push	r11		
    75b8:	b0 12 66 4d 	call	#0x4d66	
    75bc:	4b 4f       	mov.b	r15,	r11	
    75be:	5f 43       	mov.b	#1,	r15	;r3 As==01
    75c0:	b0 12 fa 4b 	call	#0x4bfa	
    75c4:	f2 f0 da ff 70 00 	and.b	#-38,	&0x0070	;#0xffda
    75ca:	5f 43       	mov.b	#1,	r15	;r3 As==01
    75cc:	b0 12 fa 4b 	call	#0x4bfa	
    75d0:	f2 f0 3f 00 04 00 	and.b	#63,	&0x0004	;#0x003f
    75d6:	3e 40 1b 00 	mov	#27,	r14	;#0x001b
    75da:	fe f0 ef ff 00 00 	and.b	#-17,	0(r14)	;#0xffef, 0x0000(r14)
    75e0:	fe f0 df ff 00 00 	and.b	#-33,	0(r14)	;#0xffdf, 0x0000(r14)
    75e6:	3d 40 1e 11 	mov	#4382,	r13	;#0x111e
    75ea:	6f 4d       	mov.b	@r13,	r15	
    75ec:	7f d0 05 00 	bis.b	#5,	r15	;#0x0005
    75f0:	c2 4f 70 00 	mov.b	r15,	&0x0070	
    75f4:	d2 4d 01 00 71 00 	mov.b	1(r13),	&0x0071	;0x0001(r13)
    75fa:	1d 42 1c 11 	mov	&0x111c,r13	
    75fe:	c2 4d 74 00 	mov.b	r13,	&0x0074	
    7602:	8d 10       	swpb	r13		
    7604:	4d 4d       	mov.b	r13,	r13	
    7606:	c2 4d 75 00 	mov.b	r13,	&0x0075	
    760a:	c2 43 73 00 	mov.b	#0,	&0x0073	;r3 As==00
    760e:	ee d3 00 00 	bis.b	#2,	0(r14)	;r3 As==10, 0x0000(r14)
    7612:	ee d2 00 00 	bis.b	#4,	0(r14)	;r2 As==10, 0x0000(r14)
    7616:	fe d2 00 00 	bis.b	#8,	0(r14)	;r2 As==11, 0x0000(r14)
    761a:	f2 d0 40 00 04 00 	bis.b	#64,	&0x0004	;#0x0040
    7620:	4f 43       	clr.b	r15		
    7622:	b0 12 fa 4b 	call	#0x4bfa	
    7626:	f2 f0 3f 00 02 00 	and.b	#63,	&0x0002	;#0x003f
    762c:	f2 f0 3f 00 00 00 	and.b	#63,	&0x0000	;#0x003f
    7632:	4f 4b       	mov.b	r11,	r15	
    7634:	b0 12 78 4d 	call	#0x4d78	
    7638:	3b 41       	pop	r11		
    763a:	30 41       	ret			

0000763c <CC2420SpiP__Resource__immediateRequest>:
    763c:	0b 12       	push	r11		
    763e:	0a 12       	push	r10		
    7640:	4b 4f       	mov.b	r15,	r11	
    7642:	b0 12 66 4d 	call	#0x4d66	
    7646:	4a 4f       	mov.b	r15,	r10	
    7648:	5e 43       	mov.b	#1,	r14	;r3 As==01
    764a:	4f 43       	clr.b	r15		
    764c:	b0 12 b6 59 	call	#0x59b6	
    7650:	4f 93       	tst.b	r15		
    7652:	06 24       	jz	$+14     	;abs 0x7660
    7654:	4f 4a       	mov.b	r10,	r15	
    7656:	b0 12 78 4d 	call	#0x4d78	
    765a:	7f 40 05 00 	mov.b	#5,	r15	;#0x0005
    765e:	1e 3c       	jmp	$+62     	;abs 0x769c
    7660:	c2 93 16 11 	tst.b	&0x1116	
    7664:	1e 20       	jnz	$+62     	;abs 0x76a2
    7666:	f2 90 03 00 62 11 	cmp.b	#3,	&0x1162	;#0x0003
    766c:	1a 20       	jnz	$+54     	;abs 0x76a2
    766e:	0b 3c       	jmp	$+24     	;abs 0x7686
    7670:	e2 43 62 11 	mov.b	#2,	&0x1162	;r3 As==10
    7674:	c2 43 1c 15 	mov.b	#0,	&0x151c	;r3 As==00
    7678:	b0 12 cc 4d 	call	#0x4dcc	
    767c:	c2 93 16 11 	tst.b	&0x1116	
    7680:	06 20       	jnz	$+14     	;abs 0x768e
    7682:	b0 12 b6 75 	call	#0x75b6	
    7686:	c2 4b 19 11 	mov.b	r11,	&0x1119	
    768a:	4b 43       	clr.b	r11		
    768c:	03 3c       	jmp	$+8      	;abs 0x7694
    768e:	c2 43 62 11 	mov.b	#0,	&0x1162	;r3 As==00
    7692:	0a 3c       	jmp	$+22     	;abs 0x76a8
    7694:	4f 4a       	mov.b	r10,	r15	
    7696:	b0 12 78 4d 	call	#0x4d78	
    769a:	4f 4b       	mov.b	r11,	r15	
    769c:	3a 41       	pop	r10		
    769e:	3b 41       	pop	r11		
    76a0:	30 41       	ret			
    76a2:	c2 93 62 11 	tst.b	&0x1162	
    76a6:	e4 27       	jz	$-54     	;abs 0x7670
    76a8:	4f 43       	clr.b	r15		
    76aa:	b0 12 ea 59 	call	#0x59ea	
    76ae:	5b 43       	mov.b	#1,	r11	;r3 As==01
    76b0:	f1 3f       	jmp	$-28     	;abs 0x7694

000076b2 <CC2420ReceiveP__beginReceive>:
    76b2:	a2 43 0c 12 	mov	#2,	&0x120c	;r3 As==10
    76b6:	d2 43 8e 12 	mov.b	#1,	&0x128e	;r3 As==01
    76ba:	e2 92 19 11 	cmp.b	#4,	&0x1119	;r2 As==10
    76be:	05 24       	jz	$+12     	;abs 0x76ca
    76c0:	6f 42       	mov.b	#4,	r15	;r2 As==10
    76c2:	b0 12 3c 76 	call	#0x763c	
    76c6:	4f 93       	tst.b	r15		
    76c8:	03 20       	jnz	$+8      	;abs 0x76d0
    76ca:	b0 12 70 59 	call	#0x5970	
    76ce:	30 41       	ret			
    76d0:	6f 42       	mov.b	#4,	r15	;r2 As==10
    76d2:	b0 12 00 5a 	call	#0x5a00	
    76d6:	30 41       	ret			

000076d8 <CC2420ReceiveP__waitForNextPacket>:
    76d8:	0b 12       	push	r11		
    76da:	b0 12 66 4d 	call	#0x4d66	
    76de:	4b 4f       	mov.b	r15,	r11	
    76e0:	82 93 0c 12 	tst	&0x120c	
    76e4:	18 24       	jz	$+50     	;abs 0x7716
    76e6:	c2 43 8e 12 	mov.b	#0,	&0x128e	;r3 As==00
    76ea:	5e 42 2b 12 	mov.b	&0x122b,r14	
    76ee:	4e 93       	tst.b	r14		
    76f0:	03 24       	jz	$+8      	;abs 0x76f8
    76f2:	f2 b2 20 00 	bit.b	#8,	&0x0020	;r2 As==11
    76f6:	05 20       	jnz	$+12     	;abs 0x7702
    76f8:	d2 b3 20 00 	bit.b	#1,	&0x0020	;r3 As==01
    76fc:	08 20       	jnz	$+18     	;abs 0x770e
    76fe:	4e 93       	tst.b	r14		
    7700:	03 24       	jz	$+8      	;abs 0x7708
    7702:	7e 53       	add.b	#-1,	r14	;r3 As==11
    7704:	c2 4e 2b 12 	mov.b	r14,	&0x122b	
    7708:	b0 12 b2 76 	call	#0x76b2	
    770c:	07 3c       	jmp	$+16     	;abs 0x771c
    770e:	92 43 0c 12 	mov	#1,	&0x120c	;r3 As==01
    7712:	c2 43 2b 12 	mov.b	#0,	&0x122b	;r3 As==00
    7716:	6f 42       	mov.b	#4,	r15	;r2 As==10
    7718:	b0 12 b0 5a 	call	#0x5ab0	
    771c:	4f 4b       	mov.b	r11,	r15	
    771e:	b0 12 78 4d 	call	#0x4d78	
    7722:	3b 41       	pop	r11		
    7724:	30 41       	ret			

00007726 <CC2420ReceiveP__flush>:
    7726:	b0 12 ee 48 	call	#0x48ee	
    772a:	b0 12 a2 5a 	call	#0x5aa2	
    772e:	b0 12 b0 58 	call	#0x58b0	
    7732:	7f 42       	mov.b	#8,	r15	;r2 As==11
    7734:	b0 12 22 58 	call	#0x5822	
    7738:	7f 42       	mov.b	#8,	r15	;r2 As==11
    773a:	b0 12 22 58 	call	#0x5822	
    773e:	b0 12 a2 5a 	call	#0x5aa2	
    7742:	6f 42       	mov.b	#4,	r15	;r2 As==10
    7744:	b0 12 b0 5a 	call	#0x5ab0	
    7748:	b0 12 d8 76 	call	#0x76d8	
    774c:	30 41       	ret			

0000774e <Msp430SpiNoDmaP__0__signalDone>:
    774e:	0b 12       	push	r11		
    7750:	0a 12       	push	r10		
    7752:	09 12       	push	r9		
    7754:	08 12       	push	r8		
    7756:	07 12       	push	r7		
    7758:	17 42 a4 14 	mov	&0x14a4,r7	
    775c:	c2 93 f2 12 	tst.b	&0x12f2	
    7760:	02 24       	jz	$+6      	;abs 0x7766
    7762:	30 40 46 7a 	br	#0x7a46	
    7766:	1f 42 f4 12 	mov	&0x12f4,r15	
    776a:	3f b0 40 00 	bit	#64,	r15	;#0x0040
    776e:	02 20       	jnz	$+6      	;abs 0x7774
    7770:	30 40 e8 79 	br	#0x79e8	
    7774:	7f f0 bf ff 	and.b	#-65,	r15	;#0xffbf
    7778:	7f 90 3f 00 	cmp.b	#63,	r15	;#0x003f
    777c:	02 24       	jz	$+6      	;abs 0x7782
    777e:	30 40 46 7a 	br	#0x7a46	
    7782:	1b 42 74 11 	mov	&0x1174,r11	
    7786:	6e 4b       	mov.b	@r11,	r14	
    7788:	c2 4e 0e 12 	mov.b	r14,	&0x120e	
    778c:	1f 42 0c 12 	mov	&0x120c,r15	
    7790:	3f 90 05 00 	cmp	#5,	r15	;#0x0005
    7794:	39 24       	jz	$+116    	;abs 0x7808
    7796:	3f 90 06 00 	cmp	#6,	r15	;#0x0006
    779a:	84 24       	jz	$+266    	;abs 0x78a4
    779c:	2f 93       	cmp	#2,	r15	;r3 As==10
    779e:	02 24       	jz	$+6      	;abs 0x77a4
    77a0:	30 40 d8 79 	br	#0x79d8	
    77a4:	b2 40 05 00 0c 12 	mov	#5,	&0x120c	;#0x0005
    77aa:	5d 42 da 11 	mov.b	&0x11da,r13	
    77ae:	4d 9e       	cmp.b	r14,	r13	
    77b0:	27 24       	jz	$+80     	;abs 0x7800
    77b2:	26 28       	jnc	$+78     	;abs 0x7800
    77b4:	f2 b2 20 00 	bit.b	#8,	&0x0020	;r2 As==11
    77b8:	08 20       	jnz	$+18     	;abs 0x77ca
    77ba:	d2 b3 20 00 	bit.b	#1,	&0x0020	;r3 As==01
    77be:	05 20       	jnz	$+12     	;abs 0x77ca
    77c0:	4f 4e       	mov.b	r14,	r15	
    77c2:	7f e3       	xor.b	#-1,	r15	;r3 As==11
    77c4:	4f 5d       	add.b	r13,	r15	
    77c6:	c2 4f da 11 	mov.b	r15,	&0x11da	
    77ca:	7e 90 2a 00 	cmp.b	#42,	r14	;#0x002a
    77ce:	18 2c       	jc	$+50     	;abs 0x7800
    77d0:	4e 93       	tst.b	r14		
    77d2:	0e 24       	jz	$+30     	;abs 0x77f0
    77d4:	0f 4b       	mov	r11,	r15	
    77d6:	1f 53       	inc	r15		
    77d8:	7e 92       	cmp.b	#8,	r14	;r2 As==11
    77da:	03 28       	jnc	$+8      	;abs 0x77e2
    77dc:	7e 40 07 00 	mov.b	#7,	r14	;#0x0007
    77e0:	03 3c       	jmp	$+8      	;abs 0x77e8
    77e2:	b2 40 06 00 0c 12 	mov	#6,	&0x120c	;#0x0006
    77e8:	b0 12 da 58 	call	#0x58da	
    77ec:	30 40 46 7a 	br	#0x7a46	
    77f0:	c2 43 8e 12 	mov.b	#0,	&0x128e	;r3 As==00
    77f4:	b0 12 a2 5a 	call	#0x5aa2	
    77f8:	6f 42       	mov.b	#4,	r15	;r2 As==10
    77fa:	b0 12 b0 5a 	call	#0x5ab0	
    77fe:	e9 3c       	jmp	$+468    	;abs 0x79d2
    7800:	b0 12 26 77 	call	#0x7726	
    7804:	30 40 46 7a 	br	#0x7a46	
    7808:	b2 40 06 00 0c 12 	mov	#6,	&0x120c	;#0x0006
    780e:	c2 93 cf 12 	tst.b	&0x12cf	
    7812:	41 24       	jz	$+132    	;abs 0x7896
    7814:	c2 93 0e 15 	tst.b	&0x150e	
    7818:	3e 20       	jnz	$+126    	;abs 0x7896
    781a:	5f 4b 02 00 	mov.b	2(r11),	r15	;0x0002(r11)
    781e:	8f 10       	swpb	r15		
    7820:	5e 4b 01 00 	mov.b	1(r11),	r14	;0x0001(r11)
    7824:	0f de       	bis	r14,	r15	
    7826:	3f f0 20 00 	and	#32,	r15	;#0x0020
    782a:	35 24       	jz	$+108    	;abs 0x7896
    782c:	5a 4b 07 00 	mov.b	7(r11),	r10	;0x0007(r11)
    7830:	8a 10       	swpb	r10		
    7832:	5f 4b 06 00 	mov.b	6(r11),	r15	;0x0006(r11)
    7836:	0a df       	bis	r15,	r10	
    7838:	b0 12 66 4d 	call	#0x4d66	
    783c:	19 42 ee 12 	mov	&0x12ee,r9	
    7840:	b0 12 78 4d 	call	#0x4d78	
    7844:	0a 99       	cmp	r9,	r10	
    7846:	08 24       	jz	$+18     	;abs 0x7858
    7848:	5f 4b 07 00 	mov.b	7(r11),	r15	;0x0007(r11)
    784c:	8f 10       	swpb	r15		
    784e:	5e 4b 06 00 	mov.b	6(r11),	r14	;0x0006(r11)
    7852:	0f de       	bis	r14,	r15	
    7854:	3f 93       	cmp	#-1,	r15	;r3 As==11
    7856:	1f 20       	jnz	$+64     	;abs 0x7896
    7858:	5f 4b 02 00 	mov.b	2(r11),	r15	;0x0002(r11)
    785c:	8f 10       	swpb	r15		
    785e:	5e 4b 01 00 	mov.b	1(r11),	r14	;0x0001(r11)
    7862:	0f de       	bis	r14,	r15	
    7864:	3f f0 07 00 	and	#7,	r15	;#0x0007
    7868:	1f 93       	cmp	#1,	r15	;r3 As==01
    786a:	15 20       	jnz	$+44     	;abs 0x7896
    786c:	b0 12 a2 5a 	call	#0x5aa2	
    7870:	b0 12 b0 58 	call	#0x58b0	
    7874:	7f 40 0a 00 	mov.b	#10,	r15	;#0x000a
    7878:	b0 12 22 58 	call	#0x5822	
    787c:	b0 12 a2 5a 	call	#0x5aa2	
    7880:	b0 12 b0 58 	call	#0x58b0	
    7884:	5e 42 0e 12 	mov.b	&0x120e,r14	
    7888:	7e 50 f9 ff 	add.b	#-7,	r14	;#0xfff9
    788c:	0f 4b       	mov	r11,	r15	
    788e:	3f 52       	add	#8,	r15	;r2 As==11
    7890:	b0 12 06 59 	call	#0x5906	
    7894:	d8 3c       	jmp	$+434    	;abs 0x7a46
    7896:	5e 42 0e 12 	mov.b	&0x120e,r14	
    789a:	7e 50 f9 ff 	add.b	#-7,	r14	;#0xfff9
    789e:	0f 4b       	mov	r11,	r15	
    78a0:	3f 52       	add	#8,	r15	;r2 As==11
    78a2:	a2 3f       	jmp	$-186    	;abs 0x77e8
    78a4:	b0 12 a2 5a 	call	#0x5aa2	
    78a8:	c2 93 2b 12 	tst.b	&0x122b	
    78ac:	03 20       	jnz	$+8      	;abs 0x78b4
    78ae:	6f 42       	mov.b	#4,	r15	;r2 As==10
    78b0:	b0 12 b0 5a 	call	#0x5ab0	
    78b4:	c2 93 2b 12 	tst.b	&0x122b	
    78b8:	03 24       	jz	$+8      	;abs 0x78c0
    78ba:	f2 b2 20 00 	bit.b	#8,	&0x0020	;r2 As==11
    78be:	0b 20       	jnz	$+24     	;abs 0x78d6
    78c0:	d2 b3 20 00 	bit.b	#1,	&0x0020	;r3 As==01
    78c4:	08 24       	jz	$+18     	;abs 0x78d6
    78c6:	5a 42 10 18 	mov.b	&0x1810,r10	
    78ca:	4a 93       	tst.b	r10		
    78cc:	04 24       	jz	$+10     	;abs 0x78d6
    78ce:	f2 90 0b 00 0e 12 	cmp.b	#11,	&0x120e	;#0x000b
    78d4:	0e 2c       	jc	$+30     	;abs 0x78f2
    78d6:	1f 42 74 11 	mov	&0x1174,r15	
    78da:	cf 43 2d 00 	mov.b	#0,	45(r15)	;r3 As==00, 0x002d(r15)
    78de:	cf 43 31 00 	mov.b	#0,	49(r15)	;r3 As==00, 0x0031(r15)
    78e2:	cf 43 30 00 	mov.b	#0,	48(r15)	;r3 As==00, 0x0030(r15)
    78e6:	cf 43 2f 00 	mov.b	#0,	47(r15)	;r3 As==00, 0x002f(r15)
    78ea:	ff 40 80 ff 2e 00 	mov.b	#-128,	46(r15)	;#0xff80, 0x002e(r15)
    78f0:	37 3c       	jmp	$+112    	;abs 0x7960
    78f2:	59 42 1a 18 	mov.b	&0x181a,r9	
    78f6:	5a 93       	cmp.b	#1,	r10	;r3 As==01
    78f8:	19 20       	jnz	$+52     	;abs 0x792c
    78fa:	0f 49       	mov	r9,	r15	
    78fc:	0f 5f       	rla	r15		
    78fe:	0f 5f       	rla	r15		
    7900:	3f 50 bc 17 	add	#6076,	r15	;#0x17bc
    7904:	28 4f       	mov	@r15,	r8	
    7906:	1c 4f 02 00 	mov	2(r15),	r12	;0x0002(r15)
    790a:	1d 42 74 11 	mov	&0x1174,r13	
    790e:	cd 48 31 00 	mov.b	r8,	49(r13)	;0x0031(r13)
    7912:	0e 4c       	mov	r12,	r14	
    7914:	0f 48       	mov	r8,	r15	
    7916:	8f 10       	swpb	r15		
    7918:	8e 10       	swpb	r14		
    791a:	4f ee       	xor.b	r14,	r15	
    791c:	0f ee       	xor	r14,	r15	
    791e:	cd 4f 30 00 	mov.b	r15,	48(r13)	;0x0030(r13)
    7922:	cd 4c 2f 00 	mov.b	r12,	47(r13)	;0x002f(r13)
    7926:	8c 10       	swpb	r12		
    7928:	cd 4c 2e 00 	mov.b	r12,	46(r13)	;0x002e(r13)
    792c:	19 53       	inc	r9		
    792e:	79 f0 07 00 	and.b	#7,	r9	;#0x0007
    7932:	c2 49 1a 18 	mov.b	r9,	&0x181a	
    7936:	7a 53       	add.b	#-1,	r10	;r3 As==11
    7938:	c2 4a 10 18 	mov.b	r10,	&0x1810	
    793c:	11 24       	jz	$+36     	;abs 0x7960
    793e:	1f 42 74 11 	mov	&0x1174,r15	
    7942:	cf 43 2d 00 	mov.b	#0,	45(r15)	;r3 As==00, 0x002d(r15)
    7946:	cf 43 31 00 	mov.b	#0,	49(r15)	;r3 As==00, 0x0031(r15)
    794a:	cf 43 30 00 	mov.b	#0,	48(r15)	;r3 As==00, 0x0030(r15)
    794e:	cf 43 2f 00 	mov.b	#0,	47(r15)	;r3 As==00, 0x002f(r15)
    7952:	ff 40 80 ff 2e 00 	mov.b	#-128,	46(r15)	;#0xff80, 0x002e(r15)
    7958:	c2 43 1a 18 	mov.b	#0,	&0x181a	;r3 As==00
    795c:	c2 43 10 18 	mov.b	#0,	&0x1810	;r3 As==00
    7960:	5f 42 0e 12 	mov.b	&0x120e,r15	
    7964:	0f 5b       	add	r11,	r15	
    7966:	cf 93 00 00 	tst.b	0(r15)		;0x0000(r15)
    796a:	33 34       	jge	$+104    	;abs 0x79d2
    796c:	07 93       	tst	r7		
    796e:	31 24       	jz	$+100    	;abs 0x79d2
    7970:	5f 4b 02 00 	mov.b	2(r11),	r15	;0x0002(r11)
    7974:	8f 10       	swpb	r15		
    7976:	5f db 01 00 	bis.b	1(r11),	r15	;0x0001(r11)
    797a:	7f f0 07 00 	and.b	#7,	r15	;#0x0007
    797e:	1d 42 74 11 	mov	&0x1174,r13	
    7982:	6f 93       	cmp.b	#2,	r15	;r3 As==10
    7984:	1f 20       	jnz	$+64     	;abs 0x79c4
    7986:	1f 42 d0 12 	mov	&0x12d0,r15	
    798a:	0f 93       	tst	r15		
    798c:	22 24       	jz	$+70     	;abs 0x79d2
    798e:	b2 90 07 00 54 11 	cmp	#7,	&0x1154	;#0x0007
    7994:	1e 20       	jnz	$+62     	;abs 0x79d2
    7996:	df 9d 03 00 03 00 	cmp.b	3(r13),	3(r15)	;0x0003(r13), 0x0003(r15)
    799c:	1a 20       	jnz	$+54     	;abs 0x79d2
    799e:	b2 f0 ef ff 82 01 	and	#-17,	&0x0182	;#0xffef
    79a4:	6e 4d       	mov.b	@r13,	r14	
    79a6:	df 43 2c 00 	mov.b	#1,	44(r15)	;r3 As==01, 0x002c(r15)
    79aa:	0e 5d       	add	r13,	r14	
    79ac:	df 4e ff ff 28 00 	mov.b	-1(r14),40(r15)	;0xffff(r14), 0x0028(r15)
    79b2:	6e 4e       	mov.b	@r14,	r14	
    79b4:	7e f0 7f 00 	and.b	#127,	r14	;#0x007f
    79b8:	cf 4e 29 00 	mov.b	r14,	41(r15)	;0x0029(r15)
    79bc:	4f 43       	clr.b	r15		
    79be:	b0 12 9c 59 	call	#0x599c	
    79c2:	07 3c       	jmp	$+16     	;abs 0x79d2
    79c4:	5f 93       	cmp.b	#1,	r15	;r3 As==01
    79c6:	05 20       	jnz	$+12     	;abs 0x79d2
    79c8:	7f 40 0c 00 	mov.b	#12,	r15	;#0x000c
    79cc:	b0 12 80 4d 	call	#0x4d80	
    79d0:	3a 3c       	jmp	$+118    	;abs 0x7a46
    79d2:	b0 12 d8 76 	call	#0x76d8	
    79d6:	37 3c       	jmp	$+112    	;abs 0x7a46
    79d8:	c2 43 8e 12 	mov.b	#0,	&0x128e	;r3 As==00
    79dc:	b0 12 a2 5a 	call	#0x5aa2	
    79e0:	6f 42       	mov.b	#4,	r15	;r2 As==10
    79e2:	b0 12 b0 5a 	call	#0x5ab0	
    79e6:	2f 3c       	jmp	$+96     	;abs 0x7a46
    79e8:	7f 90 3e 00 	cmp.b	#62,	r15	;#0x003e
    79ec:	2c 20       	jnz	$+90     	;abs 0x7a46
    79ee:	b0 12 a2 5a 	call	#0x5aa2	
    79f2:	b2 92 54 11 	cmp	#8,	&0x1154	;r2 As==11
    79f6:	11 20       	jnz	$+36     	;abs 0x7a1a
    79f8:	b0 12 b0 58 	call	#0x58b0	
    79fc:	7f 40 09 00 	mov.b	#9,	r15	;#0x0009
    7a00:	b0 12 22 58 	call	#0x5822	
    7a04:	b0 12 a2 5a 	call	#0x5aa2	
    7a08:	b0 12 66 5b 	call	#0x5b66	
    7a0c:	92 43 54 11 	mov	#1,	&0x1154	;r3 As==01
    7a10:	7f 40 03 00 	mov.b	#3,	r15	;#0x0003
    7a14:	b0 12 80 59 	call	#0x5980	
    7a18:	16 3c       	jmp	$+46     	;abs 0x7a46
    7a1a:	c2 93 3a 18 	tst.b	&0x183a	
    7a1e:	05 20       	jnz	$+12     	;abs 0x7a2a
    7a20:	a2 42 54 11 	mov	#4,	&0x1154	;r2 As==10
    7a24:	b0 12 4e 5f 	call	#0x5f4e	
    7a28:	0e 3c       	jmp	$+30     	;abs 0x7a46
    7a2a:	b0 12 66 5b 	call	#0x5b66	
    7a2e:	b2 40 03 00 54 11 	mov	#3,	&0x1154	;#0x0003
    7a34:	1f 42 d0 12 	mov	&0x12d0,r15	
    7a38:	b0 12 dc 5b 	call	#0x5bdc	
    7a3c:	1e 42 d2 11 	mov	&0x11d2,r14	
    7a40:	0f 43       	clr	r15		
    7a42:	b0 12 a6 5e 	call	#0x5ea6	
    7a46:	37 41       	pop	r7		
    7a48:	38 41       	pop	r8		
    7a4a:	39 41       	pop	r9		
    7a4c:	3a 41       	pop	r10		
    7a4e:	3b 41       	pop	r11		
    7a50:	30 41       	ret			

00007a52 <CC2420TransmitP__acquireSpiResource>:
    7a52:	0b 12       	push	r11		
    7a54:	7f 40 03 00 	mov.b	#3,	r15	;#0x0003
    7a58:	b0 12 3c 76 	call	#0x763c	
    7a5c:	4b 4f       	mov.b	r15,	r11	
    7a5e:	4f 93       	tst.b	r15		
    7a60:	04 24       	jz	$+10     	;abs 0x7a6a
    7a62:	7f 40 03 00 	mov.b	#3,	r15	;#0x0003
    7a66:	b0 12 00 5a 	call	#0x5a00	
    7a6a:	4f 4b       	mov.b	r11,	r15	
    7a6c:	3b 41       	pop	r11		
    7a6e:	30 41       	ret			

00007a70 <Msp430TimerP__1__Event__fired>:
    7a70:	0b 12       	push	r11		
    7a72:	0a 12       	push	r10		
    7a74:	09 12       	push	r9		
    7a76:	08 12       	push	r8		
    7a78:	07 12       	push	r7		
    7a7a:	7f 92       	cmp.b	#8,	r15	;r2 As==11
    7a7c:	02 28       	jnc	$+6      	;abs 0x7a82
    7a7e:	30 40 d0 7d 	br	#0x7dd0	
    7a82:	4f 4f       	mov.b	r15,	r15	
    7a84:	0f 5f       	rla	r15		
    7a86:	10 4f 4a a0 	br	-24502(r15)	;0xa04a(r15)
    7a8a:	1f 42 82 01 	mov	&0x0182,r15	
    7a8e:	8f 10       	swpb	r15		
    7a90:	5f f3       	and.b	#1,	r15	;r3 As==01
    7a92:	04 24       	jz	$+10     	;abs 0x7a9c
    7a94:	1f 42 92 01 	mov	&0x0192,r15	
    7a98:	30 40 d0 7d 	br	#0x7dd0	
    7a9c:	b2 f0 ef ff 82 01 	and	#-17,	&0x0182	;#0xffef
    7aa2:	82 93 e2 12 	tst	&0x12e2	
    7aa6:	42 20       	jnz	$+134    	;abs 0x7b2c
    7aa8:	82 93 e4 12 	tst	&0x12e4	
    7aac:	3f 20       	jnz	$+128    	;abs 0x7b2c
    7aae:	1f 42 54 11 	mov	&0x1154,r15	
    7ab2:	3f 50 fd ff 	add	#-3,	r15	;#0xfffd
    7ab6:	3f 90 06 00 	cmp	#6,	r15	;#0x0006
    7aba:	28 2c       	jc	$+82     	;abs 0x7b0c
    7abc:	0f 5f       	rla	r15		
    7abe:	10 4f 5a a0 	br	-24486(r15)	;0xa05a(r15)
    7ac2:	f2 b0 10 00 20 00 	bit.b	#16,	&0x0020	;#0x0010
    7ac8:	08 24       	jz	$+18     	;abs 0x7ada
    7aca:	a2 42 54 11 	mov	#4,	&0x1154	;r2 As==10
    7ace:	3e 40 07 00 	mov	#7,	r14	;#0x0007
    7ad2:	0f 43       	clr	r15		
    7ad4:	b0 12 a6 5e 	call	#0x5ea6	
    7ad8:	19 3c       	jmp	$+52     	;abs 0x7b0c
    7ada:	b0 12 ea 5e 	call	#0x5eea	
    7ade:	16 3c       	jmp	$+46     	;abs 0x7b0c
    7ae0:	b0 12 52 7a 	call	#0x7a52	
    7ae4:	4f 93       	tst.b	r15		
    7ae6:	12 20       	jnz	$+38     	;abs 0x7b0c
    7ae8:	b0 12 4e 5f 	call	#0x5f4e	
    7aec:	0f 3c       	jmp	$+32     	;abs 0x7b0c
    7aee:	4f 43       	clr.b	r15		
    7af0:	0b 3c       	jmp	$+24     	;abs 0x7b08
    7af2:	7f 40 09 00 	mov.b	#9,	r15	;#0x0009
    7af6:	b0 12 22 58 	call	#0x5822	
    7afa:	5f 43       	mov.b	#1,	r15	;r3 As==01
    7afc:	b0 12 34 47 	call	#0x4734	
    7b00:	b0 12 66 5b 	call	#0x5b66	
    7b04:	7f 40 07 00 	mov.b	#7,	r15	;#0x0007
    7b08:	b0 12 9c 59 	call	#0x599c	
    7b0c:	92 93 66 11 	cmp	#1,	&0x1166	;r3 As==01
    7b10:	02 24       	jz	$+6      	;abs 0x7b16
    7b12:	30 40 d0 7d 	br	#0x7dd0	
    7b16:	a2 43 66 11 	mov	#2,	&0x1166	;r3 As==10
    7b1a:	b0 12 b0 68 	call	#0x68b0	
    7b1e:	b0 12 c0 68 	call	#0x68c0	
    7b22:	4f 43       	clr.b	r15		
    7b24:	b0 12 00 5a 	call	#0x5a00	
    7b28:	30 40 d0 7d 	br	#0x7dd0	
    7b2c:	b0 12 c2 5d 	call	#0x5dc2	
    7b30:	30 40 d0 7d 	br	#0x7dd0	
    7b34:	1f 42 84 01 	mov	&0x0184,r15	
    7b38:	8f 10       	swpb	r15		
    7b3a:	5f f3       	and.b	#1,	r15	;r3 As==01
    7b3c:	02 20       	jnz	$+6      	;abs 0x7b42
    7b3e:	30 40 d0 7d 	br	#0x7dd0	
    7b42:	18 42 94 01 	mov	&0x0194,r8	
    7b46:	b2 f0 fe ff 84 01 	and	#-2,	&0x0184	;#0xfffe
    7b4c:	b2 f0 fd ff 84 01 	and	#-3,	&0x0184	;#0xfffd
    7b52:	b0 12 78 5d 	call	#0x5d78	
    7b56:	0c 4e       	mov	r14,	r12	
    7b58:	0c 88       	sub	r8,	r12	
    7b5a:	0d 43       	clr	r13		
    7b5c:	0a 4e       	mov	r14,	r10	
    7b5e:	0b 4f       	mov	r15,	r11	
    7b60:	0a 8c       	sub	r12,	r10	
    7b62:	0b 7d       	subc	r13,	r11	
    7b64:	1f 42 54 11 	mov	&0x1154,r15	
    7b68:	3f 90 05 00 	cmp	#5,	r15	;#0x0005
    7b6c:	04 24       	jz	$+10     	;abs 0x7b76
    7b6e:	3f 90 06 00 	cmp	#6,	r15	;#0x0006
    7b72:	8d 20       	jnz	$+284    	;abs 0x7c8e
    7b74:	6d 3c       	jmp	$+220    	;abs 0x7c50
    7b76:	b2 40 06 00 54 11 	mov	#6,	&0x1154	;#0x0006
    7b7c:	d2 43 8c 12 	mov.b	#1,	&0x128c	;r3 As==01
    7b80:	c2 43 52 11 	mov.b	#0,	&0x1152	;r3 As==00
    7b84:	6f 43       	mov.b	#2,	r15	;r3 As==10
    7b86:	b0 12 34 47 	call	#0x4734	
    7b8a:	1f 42 d0 12 	mov	&0x12d0,r15	
    7b8e:	cf 4a 31 00 	mov.b	r10,	49(r15)	;0x0031(r15)
    7b92:	0e 4a       	mov	r10,	r14	
    7b94:	0d 4b       	mov	r11,	r13	
    7b96:	8e 10       	swpb	r14		
    7b98:	8d 10       	swpb	r13		
    7b9a:	4e ed       	xor.b	r13,	r14	
    7b9c:	0e ed       	xor	r13,	r14	
    7b9e:	cf 4e 30 00 	mov.b	r14,	48(r15)	;0x0030(r15)
    7ba2:	0e 4b       	mov	r11,	r14	
    7ba4:	cf 4b 2f 00 	mov.b	r11,	47(r15)	;0x002f(r15)
    7ba8:	8e 10       	swpb	r14		
    7baa:	cf 4e 2e 00 	mov.b	r14,	46(r15)	;0x002e(r15)
    7bae:	cf 93 2d 00 	tst.b	45(r15)	;0x002d(r15)
    7bb2:	39 24       	jz	$+116    	;abs 0x7c26
    7bb4:	67 4f       	mov.b	@r15,	r7	
    7bb6:	77 50 fb ff 	add.b	#-5,	r7	;#0xfffb
    7bba:	49 47       	mov.b	r7,	r9	
    7bbc:	09 5f       	add	r15,	r9	
    7bbe:	0f 49       	mov	r9,	r15	
    7bc0:	b0 12 14 46 	call	#0x4614	
    7bc4:	0c 4e       	mov	r14,	r12	
    7bc6:	0d 4f       	mov	r15,	r13	
    7bc8:	0c 8a       	sub	r10,	r12	
    7bca:	0d 7b       	subc	r11,	r13	
    7bcc:	c9 4c 03 00 	mov.b	r12,	3(r9)	;0x0003(r9)
    7bd0:	0f 4c       	mov	r12,	r15	
    7bd2:	0c 4d       	mov	r13,	r12	
    7bd4:	8f 10       	swpb	r15		
    7bd6:	8c 10       	swpb	r12		
    7bd8:	4f ec       	xor.b	r12,	r15	
    7bda:	0f ec       	xor	r12,	r15	
    7bdc:	c9 4f 02 00 	mov.b	r15,	2(r9)	;0x0002(r9)
    7be0:	0f 4d       	mov	r13,	r15	
    7be2:	c9 4d 01 00 	mov.b	r13,	1(r9)	;0x0001(r9)
    7be6:	8f 10       	swpb	r15		
    7be8:	c9 4f 00 00 	mov.b	r15,	0(r9)	;0x0000(r9)
    7bec:	b0 12 b0 58 	call	#0x58b0	
    7bf0:	6c 42       	mov.b	#4,	r12	;r2 As==10
    7bf2:	0d 49       	mov	r9,	r13	
    7bf4:	4e 47       	mov.b	r7,	r14	
    7bf6:	0f 43       	clr	r15		
    7bf8:	b0 12 2a 60 	call	#0x602a	
    7bfc:	b0 12 a2 5a 	call	#0x5aa2	
    7c00:	0f 49       	mov	r9,	r15	
    7c02:	b0 12 14 46 	call	#0x4614	
    7c06:	0e 5a       	add	r10,	r14	
    7c08:	0f 6b       	addc	r11,	r15	
    7c0a:	c9 4e 03 00 	mov.b	r14,	3(r9)	;0x0003(r9)
    7c0e:	0d 4f       	mov	r15,	r13	
    7c10:	8e 10       	swpb	r14		
    7c12:	8d 10       	swpb	r13		
    7c14:	4e ed       	xor.b	r13,	r14	
    7c16:	0e ed       	xor	r13,	r14	
    7c18:	c9 4e 02 00 	mov.b	r14,	2(r9)	;0x0002(r9)
    7c1c:	c9 4f 01 00 	mov.b	r15,	1(r9)	;0x0001(r9)
    7c20:	8f 10       	swpb	r15		
    7c22:	c9 4f 00 00 	mov.b	r15,	0(r9)	;0x0000(r9)
    7c26:	1e 42 d0 12 	mov	&0x12d0,r14	
    7c2a:	5f 4e 02 00 	mov.b	2(r14),	r15	;0x0002(r14)
    7c2e:	8f 10       	swpb	r15		
    7c30:	5e 4e 01 00 	mov.b	1(r14),	r14	;0x0001(r14)
    7c34:	0f de       	bis	r14,	r15	
    7c36:	3f f0 20 00 	and	#32,	r15	;#0x0020
    7c3a:	02 24       	jz	$+6      	;abs 0x7c40
    7c3c:	d2 43 e3 11 	mov.b	#1,	&0x11e3	;r3 As==01
    7c40:	b0 12 66 5b 	call	#0x5b66	
    7c44:	b2 f0 ef ff 82 01 	and	#-17,	&0x0182	;#0xffef
    7c4a:	e2 b3 1c 00 	bit.b	#2,	&0x001c	;r3 As==10
    7c4e:	c0 20       	jnz	$+386    	;abs 0x7dd0
    7c50:	c2 43 8c 12 	mov.b	#0,	&0x128c	;r3 As==00
    7c54:	5f 43       	mov.b	#1,	r15	;r3 As==01
    7c56:	b0 12 34 47 	call	#0x4734	
    7c5a:	1e 42 d0 12 	mov	&0x12d0,r14	
    7c5e:	5f 4e 02 00 	mov.b	2(r14),	r15	;0x0002(r14)
    7c62:	8f 10       	swpb	r15		
    7c64:	5e 4e 01 00 	mov.b	1(r14),	r14	;0x0001(r14)
    7c68:	0f de       	bis	r14,	r15	
    7c6a:	3f f0 20 00 	and	#32,	r15	;#0x0020
    7c6e:	09 24       	jz	$+20     	;abs 0x7c82
    7c70:	b2 40 07 00 54 11 	mov	#7,	&0x1154	;#0x0007
    7c76:	3e 40 00 01 	mov	#256,	r14	;#0x0100
    7c7a:	0f 43       	clr	r15		
    7c7c:	b0 12 a6 5e 	call	#0x5ea6	
    7c80:	03 3c       	jmp	$+8      	;abs 0x7c88
    7c82:	4f 43       	clr.b	r15		
    7c84:	b0 12 9c 59 	call	#0x599c	
    7c88:	e2 b3 1c 00 	bit.b	#2,	&0x001c	;r3 As==10
    7c8c:	a1 24       	jz	$+324    	;abs 0x7dd0
    7c8e:	c2 93 52 11 	tst.b	&0x1152	
    7c92:	27 20       	jnz	$+80     	;abs 0x7ce2
    7c94:	c2 93 8c 12 	tst.b	&0x128c	
    7c98:	24 20       	jnz	$+74     	;abs 0x7ce2
    7c9a:	d2 43 8c 12 	mov.b	#1,	&0x128c	;r3 As==01
    7c9e:	6f 43       	mov.b	#2,	r15	;r3 As==10
    7ca0:	b0 12 34 47 	call	#0x4734	
    7ca4:	5d 42 1c 00 	mov.b	&0x001c,r13	
    7ca8:	5e 42 10 18 	mov.b	&0x1810,r14	
    7cac:	7e 92       	cmp.b	#8,	r14	;r2 As==11
    7cae:	0e 2c       	jc	$+30     	;abs 0x7ccc
    7cb0:	4f 4e       	mov.b	r14,	r15	
    7cb2:	5f 52 1a 18 	add.b	&0x181a,r15	
    7cb6:	3f f0 07 00 	and	#7,	r15	;#0x0007
    7cba:	0f 5f       	rla	r15		
    7cbc:	0f 5f       	rla	r15		
    7cbe:	8f 4a bc 17 	mov	r10,	6076(r15);0x17bc(r15)
    7cc2:	8f 4b be 17 	mov	r11,	6078(r15);0x17be(r15)
    7cc6:	5e 53       	inc.b	r14		
    7cc8:	c2 4e 10 18 	mov.b	r14,	&0x1810	
    7ccc:	d2 43 52 11 	mov.b	#1,	&0x1152	;r3 As==01
    7cd0:	82 48 f6 12 	mov	r8,	&0x12f6	
    7cd4:	e2 b3 1c 00 	bit.b	#2,	&0x001c	;r3 As==10
    7cd8:	7b 20       	jnz	$+248    	;abs 0x7dd0
    7cda:	4f 4d       	mov.b	r13,	r15	
    7cdc:	6f f3       	and.b	#2,	r15	;r3 As==10
    7cde:	5a 43       	mov.b	#1,	r10	;r3 As==01
    7ce0:	01 20       	jnz	$+4      	;abs 0x7ce4
    7ce2:	4a 43       	clr.b	r10		
    7ce4:	d2 93 8c 12 	cmp.b	#1,	&0x128c	;r3 As==01
    7ce8:	73 20       	jnz	$+232    	;abs 0x7dd0
    7cea:	c2 43 8c 12 	mov.b	#0,	&0x128c	;r3 As==00
    7cee:	5f 43       	mov.b	#1,	r15	;r3 As==01
    7cf0:	b0 12 34 47 	call	#0x4734	
    7cf4:	c2 43 52 11 	mov.b	#0,	&0x1152	;r3 As==00
    7cf8:	4a 93       	tst.b	r10		
    7cfa:	6a 20       	jnz	$+214    	;abs 0x7dd0
    7cfc:	18 82 f6 12 	sub	&0x12f6,r8	
    7d00:	38 90 0a 00 	cmp	#10,	r8	;#0x000a
    7d04:	65 2c       	jc	$+204    	;abs 0x7dd0
    7d06:	5f 42 10 18 	mov.b	&0x1810,r15	
    7d0a:	4f 93       	tst.b	r15		
    7d0c:	03 24       	jz	$+8      	;abs 0x7d14
    7d0e:	7f 53       	add.b	#-1,	r15	;r3 As==11
    7d10:	c2 4f 10 18 	mov.b	r15,	&0x1810	
    7d14:	1f 42 d0 12 	mov	&0x12d0,r15	
    7d18:	0f 93       	tst	r15		
    7d1a:	5a 24       	jz	$+182    	;abs 0x7dd0
    7d1c:	cf 43 2d 00 	mov.b	#0,	45(r15)	;r3 As==00, 0x002d(r15)
    7d20:	cf 43 31 00 	mov.b	#0,	49(r15)	;r3 As==00, 0x0031(r15)
    7d24:	cf 43 30 00 	mov.b	#0,	48(r15)	;r3 As==00, 0x0030(r15)
    7d28:	cf 43 2f 00 	mov.b	#0,	47(r15)	;r3 As==00, 0x002f(r15)
    7d2c:	ff 40 80 ff 2e 00 	mov.b	#-128,	46(r15)	;#0xff80, 0x002e(r15)
    7d32:	4e 3c       	jmp	$+158    	;abs 0x7dd0
    7d34:	1f 42 86 01 	mov	&0x0186,r15	
    7d38:	8f 10       	swpb	r15		
    7d3a:	5f f3       	and.b	#1,	r15	;r3 As==01
    7d3c:	03 24       	jz	$+8      	;abs 0x7d44
    7d3e:	1f 42 96 01 	mov	&0x0196,r15	
    7d42:	46 3c       	jmp	$+142    	;abs 0x7dd0
    7d44:	b2 f0 ef ff 86 01 	and	#-17,	&0x0186	;#0xffef
    7d4a:	82 93 2e 12 	tst	&0x122e	
    7d4e:	08 20       	jnz	$+18     	;abs 0x7d60
    7d50:	82 93 30 12 	tst	&0x1230	
    7d54:	05 20       	jnz	$+12     	;abs 0x7d60
    7d56:	7f 40 0d 00 	mov.b	#13,	r15	;#0x000d
    7d5a:	b0 12 80 4d 	call	#0x4d80	
    7d5e:	38 3c       	jmp	$+114    	;abs 0x7dd0
    7d60:	b0 12 dc 50 	call	#0x50dc	
    7d64:	35 3c       	jmp	$+108    	;abs 0x7dd0
    7d66:	1f 42 88 01 	mov	&0x0188,r15	
    7d6a:	8f 10       	swpb	r15		
    7d6c:	5f f3       	and.b	#1,	r15	;r3 As==01
    7d6e:	03 24       	jz	$+8      	;abs 0x7d76
    7d70:	1f 42 98 01 	mov	&0x0198,r15	
    7d74:	2d 3c       	jmp	$+92     	;abs 0x7dd0
    7d76:	b2 f0 ef ff 88 01 	and	#-17,	&0x0188	;#0xffef
    7d7c:	82 93 c4 12 	tst	&0x12c4	
    7d80:	06 20       	jnz	$+14     	;abs 0x7d8e
    7d82:	82 93 c6 12 	tst	&0x12c6	
    7d86:	03 20       	jnz	$+8      	;abs 0x7d8e
    7d88:	b0 12 1a 54 	call	#0x541a	
    7d8c:	21 3c       	jmp	$+68     	;abs 0x7dd0
    7d8e:	b0 12 86 4e 	call	#0x4e86	
    7d92:	1e 3c       	jmp	$+62     	;abs 0x7dd0
    7d94:	1f 42 8a 01 	mov	&0x018a,r15	
    7d98:	8f 10       	swpb	r15		
    7d9a:	5f f3       	and.b	#1,	r15	;r3 As==01
    7d9c:	19 24       	jz	$+52     	;abs 0x7dd0
    7d9e:	1f 42 9a 01 	mov	&0x019a,r15	
    7da2:	16 3c       	jmp	$+46     	;abs 0x7dd0
    7da4:	1f 42 8c 01 	mov	&0x018c,r15	
    7da8:	8f 10       	swpb	r15		
    7daa:	5f f3       	and.b	#1,	r15	;r3 As==01
    7dac:	11 24       	jz	$+36     	;abs 0x7dd0
    7dae:	1f 42 9c 01 	mov	&0x019c,r15	
    7db2:	0e 3c       	jmp	$+30     	;abs 0x7dd0
    7db4:	1f 42 8e 01 	mov	&0x018e,r15	
    7db8:	8f 10       	swpb	r15		
    7dba:	5f f3       	and.b	#1,	r15	;r3 As==01
    7dbc:	09 24       	jz	$+20     	;abs 0x7dd0
    7dbe:	1f 42 9e 01 	mov	&0x019e,r15	
    7dc2:	06 3c       	jmp	$+14     	;abs 0x7dd0
    7dc4:	92 53 dc 12 	inc	&0x12dc	
    7dc8:	82 63 de 12 	adc	&0x12de	
    7dcc:	92 53 42 13 	inc	&0x1342	
    7dd0:	37 41       	pop	r7		
    7dd2:	38 41       	pop	r8		
    7dd4:	39 41       	pop	r9		
    7dd6:	3a 41       	pop	r10		
    7dd8:	3b 41       	pop	r11		
    7dda:	30 41       	ret			

00007ddc <SchedulerBasicP__TaskBasic__runTask>:
    7ddc:	0b 12       	push	r11		
    7dde:	0a 12       	push	r10		
    7de0:	09 12       	push	r9		
    7de2:	08 12       	push	r8		
    7de4:	07 12       	push	r7		
    7de6:	06 12       	push	r6		
    7de8:	05 12       	push	r5		
    7dea:	04 12       	push	r4		
    7dec:	31 50 f4 ff 	add	#-12,	r1	;#0xfff4
    7df0:	7f 90 28 00 	cmp.b	#40,	r15	;#0x0028
    7df4:	02 28       	jnc	$+6      	;abs 0x7dfa
    7df6:	30 40 80 95 	br	#0x9580	
    7dfa:	4f 4f       	mov.b	r15,	r15	
    7dfc:	0f 5f       	rla	r15		
    7dfe:	10 4f 66 a0 	br	-24474(r15)	;0xa066(r15)
    7e02:	1b 42 ae 17 	mov	&0x17ae,r11	
    7e06:	3b 93       	cmp	#-1,	r11	;r3 As==11
    7e08:	01 20       	jnz	$+4      	;abs 0x7e0c
    7e0a:	0b 43       	clr	r11		
    7e0c:	0f 41       	mov	r1,	r15	
    7e0e:	b0 12 90 4c 	call	#0x4c90	
    7e12:	4f 43       	clr.b	r15		
    7e14:	b0 12 94 61 	call	#0x6194	
    7e18:	4f 93       	tst.b	r15		
    7e1a:	03 24       	jz	$+8      	;abs 0x7e22
    7e1c:	4f 43       	clr.b	r15		
    7e1e:	b0 12 80 4d 	call	#0x4d80	
    7e22:	1f 42 6e 11 	mov	&0x116e,r15	
    7e26:	c2 4f 26 13 	mov.b	r15,	&0x1326	
    7e2a:	8f 10       	swpb	r15		
    7e2c:	c2 4f 25 13 	mov.b	r15,	&0x1325	
    7e30:	b0 12 66 4d 	call	#0x4d66	
    7e34:	4d 4f       	mov.b	r15,	r13	
    7e36:	c2 93 26 11 	tst.b	&0x1126	
    7e3a:	11 20       	jnz	$+36     	;abs 0x7e5e
    7e3c:	d2 43 26 11 	mov.b	#1,	&0x1126	;r3 As==01
    7e40:	c2 43 ce 12 	mov.b	#0,	&0x12ce	;r3 As==00
    7e44:	b0 12 78 4d 	call	#0x4d78	
    7e48:	c2 93 24 11 	tst.b	&0x1124	
    7e4c:	05 20       	jnz	$+12     	;abs 0x7e58
    7e4e:	7f 40 26 00 	mov.b	#38,	r15	;#0x0026
    7e52:	b0 12 80 4d 	call	#0x4d80	
    7e56:	1f 3c       	jmp	$+64     	;abs 0x7e96
    7e58:	d2 43 22 11 	mov.b	#1,	&0x1122	;r3 As==01
    7e5c:	1c 3c       	jmp	$+58     	;abs 0x7e96
    7e5e:	c2 93 ce 12 	tst.b	&0x12ce	
    7e62:	17 24       	jz	$+48     	;abs 0x7e92
    7e64:	1e 43       	mov	#1,	r14	;r3 As==01
    7e66:	f2 93 1e 18 	cmp.b	#-1,	&0x181e	;r3 As==11
    7e6a:	04 20       	jnz	$+10     	;abs 0x7e74
    7e6c:	c2 93 01 11 	tst.b	&0x1101	
    7e70:	01 24       	jz	$+4      	;abs 0x7e74
    7e72:	0e 43       	clr	r14		
    7e74:	0e 93       	tst	r14		
    7e76:	0c 20       	jnz	$+26     	;abs 0x7e90
    7e78:	f2 93 02 11 	cmp.b	#-1,	&0x1102	;r3 As==11
    7e7c:	03 20       	jnz	$+8      	;abs 0x7e84
    7e7e:	c2 43 02 11 	mov.b	#0,	&0x1102	;r3 As==00
    7e82:	04 3c       	jmp	$+10     	;abs 0x7e8c
    7e84:	5f 42 01 11 	mov.b	&0x1101,r15	
    7e88:	cf 43 1e 18 	mov.b	#0,	6174(r15);r3 As==00, 0x181e(r15)
    7e8c:	c2 43 01 11 	mov.b	#0,	&0x1101	;r3 As==00
    7e90:	4f 4d       	mov.b	r13,	r15	
    7e92:	b0 12 78 4d 	call	#0x4d78	
    7e96:	1f 42 6c 11 	mov	&0x116c,r15	
    7e9a:	c2 4f 22 13 	mov.b	r15,	&0x1322	
    7e9e:	8f 10       	swpb	r15		
    7ea0:	c2 4f 21 13 	mov.b	r15,	&0x1321	
    7ea4:	d2 42 20 11 20 13 	mov.b	&0x1120,&0x1320	
    7eaa:	1f 42 70 11 	mov	&0x1170,r15	
    7eae:	c2 4f 1b 13 	mov.b	r15,	&0x131b	
    7eb2:	8f 10       	swpb	r15		
    7eb4:	c2 4f 1a 13 	mov.b	r15,	&0x131a	
    7eb8:	c2 4b 1d 13 	mov.b	r11,	&0x131d	
    7ebc:	8b 10       	swpb	r11		
    7ebe:	c2 4b 1c 13 	mov.b	r11,	&0x131c	
    7ec2:	2f 41       	mov	@r1,	r15	
    7ec4:	c2 4f 1f 13 	mov.b	r15,	&0x131f	
    7ec8:	8f 10       	swpb	r15		
    7eca:	c2 4f 1e 13 	mov.b	r15,	&0x131e	
    7ece:	c2 43 27 13 	mov.b	#0,	&0x1327	;r3 As==00
    7ed2:	5f 43       	mov.b	#1,	r15	;r3 As==01
    7ed4:	b0 12 80 4d 	call	#0x4d80	
    7ed8:	30 40 80 95 	br	#0x9580	
    7edc:	e2 b3 44 11 	bit.b	#2,	&0x1144	;r3 As==10
    7ee0:	43 24       	jz	$+136    	;abs 0x7f68
    7ee2:	f2 40 29 00 04 13 	mov.b	#41,	&0x1304	;#0x0029
    7ee8:	1f 42 20 11 	mov	&0x1120,r15	
    7eec:	c2 4f 15 13 	mov.b	r15,	&0x1315	
    7ef0:	8f 10       	swpb	r15		
    7ef2:	c2 4f 14 13 	mov.b	r15,	&0x1314	
    7ef6:	5f 42 db 11 	mov.b	&0x11db,r15	
    7efa:	4e 4f       	mov.b	r15,	r14	
    7efc:	5e 53       	inc.b	r14		
    7efe:	c2 4e db 11 	mov.b	r14,	&0x11db	
    7f02:	c2 4f 16 13 	mov.b	r15,	&0x1316	
    7f06:	f2 40 ee ff 17 13 	mov.b	#-18,	&0x1317	;#0xffee
    7f0c:	c2 43 11 13 	mov.b	#0,	&0x1311	;r3 As==00
    7f10:	1f 42 2c 18 	mov	&0x182c,r15	
    7f14:	0f 93       	tst	r15		
    7f16:	28 24       	jz	$+82     	;abs 0x7f68
    7f18:	bf 40 04 13 00 00 	mov	#4868,	0(r15)	;#0x1304, 0x0000(r15)
    7f1e:	cf 43 02 00 	mov.b	#0,	2(r15)	;r3 As==00, 0x0002(r15)
    7f22:	ff 40 1e 00 03 00 	mov.b	#30,	3(r15)	;#0x001e, 0x0003(r15)
    7f28:	f2 90 0d 00 3e 11 	cmp.b	#13,	&0x113e	;#0x000d
    7f2e:	1c 2c       	jc	$+58     	;abs 0x7f68
    7f30:	b0 12 40 4d 	call	#0x4d40	
    7f34:	4f 93       	tst.b	r15		
    7f36:	18 20       	jnz	$+50     	;abs 0x7f68
    7f38:	5f 42 44 11 	mov.b	&0x1144,r15	
    7f3c:	6f b2       	bit.b	#4,	r15	;r2 As==10
    7f3e:	05 24       	jz	$+12     	;abs 0x7f4a
    7f40:	7f f0 10 00 	and.b	#16,	r15	;#0x0010
    7f44:	02 20       	jnz	$+6      	;abs 0x7f4a
    7f46:	b0 12 00 4e 	call	#0x4e00	
    7f4a:	82 43 2c 18 	mov	#0,	&0x182c	;r3 As==00
    7f4e:	d2 43 72 11 	mov.b	#1,	&0x1172	;r3 As==01
    7f52:	b0 12 66 4d 	call	#0x4d66	
    7f56:	f2 e0 40 00 31 00 	xor.b	#64,	&0x0031	;#0x0040
    7f5c:	b0 12 78 4d 	call	#0x4d78	
    7f60:	92 53 70 11 	inc	&0x1170	
    7f64:	30 40 80 95 	br	#0x9580	
    7f68:	b0 12 66 4d 	call	#0x4d66	
    7f6c:	f2 e0 10 00 31 00 	xor.b	#16,	&0x0031	;#0x0010
    7f72:	b0 12 78 4d 	call	#0x4d78	
    7f76:	5f 43       	mov.b	#1,	r15	;r3 As==01
    7f78:	b0 12 80 4d 	call	#0x4d80	
    7f7c:	30 40 80 95 	br	#0x9580	
    7f80:	c2 93 22 18 	tst.b	&0x1822	
    7f84:	02 20       	jnz	$+6      	;abs 0x7f8a
    7f86:	30 40 80 95 	br	#0x9580	
    7f8a:	3a 40 3a 13 	mov	#4922,	r10	;#0x133a
    7f8e:	49 43       	clr.b	r9		
    7f90:	5b 43       	mov.b	#1,	r11	;r3 As==01
    7f92:	5f 42 22 18 	mov.b	&0x1822,r15	
    7f96:	4b bf       	bit.b	r15,	r11	
    7f98:	0b 24       	jz	$+24     	;abs 0x7fb0
    7f9a:	2e 4a       	mov	@r10,	r14	
    7f9c:	8a 43 00 00 	mov	#0,	0(r10)	;r3 As==00, 0x0000(r10)
    7fa0:	4f cb       	bic.b	r11,	r15	
    7fa2:	c2 4f 22 18 	mov.b	r15,	&0x1822	
    7fa6:	7d 40 03 00 	mov.b	#3,	r13	;#0x0003
    7faa:	4f 49       	mov.b	r9,	r15	
    7fac:	b0 12 fc 62 	call	#0x62fc	
    7fb0:	4b 5b       	rla.b	r11		
    7fb2:	59 53       	inc.b	r9		
    7fb4:	2a 53       	incd	r10		
    7fb6:	79 92       	cmp.b	#8,	r9	;r2 As==11
    7fb8:	ec 23       	jnz	$-38     	;abs 0x7f92
    7fba:	30 40 80 95 	br	#0x9580	
    7fbe:	5b 42 1a 11 	mov.b	&0x111a,r11	
    7fc2:	4e 4b       	mov.b	r11,	r14	
    7fc4:	0e 5e       	rla	r14		
    7fc6:	0d 4e       	mov	r14,	r13	
    7fc8:	3d 50 3a 13 	add	#4922,	r13	;#0x133a
    7fcc:	2a 4d       	mov	@r13,	r10	
    7fce:	8d 43 00 00 	mov	#0,	0(r13)	;r3 As==00, 0x0000(r13)
    7fd2:	b0 12 aa 64 	call	#0x64aa	
    7fd6:	5d 43       	mov.b	#1,	r13	;r3 As==01
    7fd8:	0e 4a       	mov	r10,	r14	
    7fda:	4f 4b       	mov.b	r11,	r15	
    7fdc:	b0 12 fc 62 	call	#0x62fc	
    7fe0:	30 40 80 95 	br	#0x9580	
    7fe4:	b0 12 66 4d 	call	#0x4d66	
    7fe8:	4b 4f       	mov.b	r15,	r11	
    7fea:	5f 43       	mov.b	#1,	r15	;r3 As==01
    7fec:	b0 12 34 47 	call	#0x4734	
    7ff0:	92 43 54 11 	mov	#1,	&0x1154	;r3 As==01
    7ff4:	c2 43 52 11 	mov.b	#0,	&0x1152	;r3 As==00
    7ff8:	c2 43 e3 11 	mov.b	#0,	&0x11e3	;r3 As==00
    7ffc:	c2 43 29 12 	mov.b	#0,	&0x1229	;r3 As==00
    8000:	4f 4b       	mov.b	r11,	r15	
    8002:	b0 12 78 4d 	call	#0x4d78	
    8006:	b0 12 66 4d 	call	#0x4d66	
    800a:	81 4f 0a 00 	mov	r15,	10(r1)	;0x000a(r1)
    800e:	b0 12 ee 48 	call	#0x48ee	
    8012:	92 43 0c 12 	mov	#1,	&0x120c	;r3 As==01
    8016:	c2 43 8e 12 	mov.b	#0,	&0x128e	;r3 As==00
    801a:	f2 f0 fe ff 25 00 	and.b	#-2,	&0x0025	;#0xfffe
    8020:	f2 f0 fe ff 23 00 	and.b	#-2,	&0x0023	;#0xfffe
    8026:	d2 d3 24 00 	bis.b	#1,	&0x0024	;r3 As==01
    802a:	d2 d3 25 00 	bis.b	#1,	&0x0025	;r3 As==01
    802e:	1f 41 0a 00 	mov	10(r1),	r15	;0x000a(r1)
    8032:	b0 12 78 4d 	call	#0x4d78	
    8036:	b0 12 66 4d 	call	#0x4d66	
    803a:	4b 4f       	mov.b	r15,	r11	
    803c:	a2 92 66 11 	cmp	#4,	&0x1166	;r2 As==10
    8040:	05 20       	jnz	$+12     	;abs 0x804c
    8042:	7f 40 03 00 	mov.b	#3,	r15	;#0x0003
    8046:	b0 12 22 58 	call	#0x5822	
    804a:	4f 4b       	mov.b	r11,	r15	
    804c:	b0 12 78 4d 	call	#0x4d78	
    8050:	b0 12 66 4d 	call	#0x4d66	
    8054:	4b 4f       	mov.b	r15,	r11	
    8056:	b0 12 a2 5a 	call	#0x5aa2	
    805a:	4f 43       	clr.b	r15		
    805c:	b0 12 b0 5a 	call	#0x5ab0	
    8060:	4f 4b       	mov.b	r11,	r15	
    8062:	b0 12 78 4d 	call	#0x4d78	
    8066:	6e 43       	mov.b	#2,	r14	;r3 As==10
    8068:	5f 43       	mov.b	#1,	r15	;r3 As==01
    806a:	b0 12 96 66 	call	#0x6696	
    806e:	6e 43       	mov.b	#2,	r14	;r3 As==10
    8070:	7f 40 03 00 	mov.b	#3,	r15	;#0x0003
    8074:	b0 12 96 66 	call	#0x6696	
    8078:	b0 12 ca 67 	call	#0x67ca	
    807c:	4f 93       	tst.b	r15		
    807e:	08 20       	jnz	$+18     	;abs 0x8090
    8080:	b0 12 72 58 	call	#0x5872	
    8084:	4f 93       	tst.b	r15		
    8086:	04 24       	jz	$+10     	;abs 0x8090
    8088:	7f 40 16 00 	mov.b	#22,	r15	;#0x0016
    808c:	b0 12 80 4d 	call	#0x4d80	
    8090:	6e 43       	mov.b	#2,	r14	;r3 As==10
    8092:	7f 40 03 00 	mov.b	#3,	r15	;#0x0003
    8096:	b0 12 96 66 	call	#0x6696	
    809a:	b0 12 82 66 	call	#0x6682	
    809e:	5f 93       	cmp.b	#1,	r15	;r3 As==01
    80a0:	06 24       	jz	$+14     	;abs 0x80ae
    80a2:	b0 12 82 66 	call	#0x6682	
    80a6:	6f 93       	cmp.b	#2,	r15	;r3 As==10
    80a8:	02 24       	jz	$+6      	;abs 0x80ae
    80aa:	30 40 80 95 	br	#0x9580	
    80ae:	b0 12 ec 4f 	call	#0x4fec	
    80b2:	30 40 80 95 	br	#0x9580	
    80b6:	4e 43       	clr.b	r14		
    80b8:	5f 43       	mov.b	#1,	r15	;r3 As==01
    80ba:	b0 12 96 66 	call	#0x6696	
    80be:	4e 43       	clr.b	r14		
    80c0:	7f 40 03 00 	mov.b	#3,	r15	;#0x0003
    80c4:	b0 12 96 66 	call	#0x6696	
    80c8:	b0 12 ca 67 	call	#0x67ca	
    80cc:	4f 93       	tst.b	r15		
    80ce:	0a 20       	jnz	$+22     	;abs 0x80e4
    80d0:	b0 12 72 58 	call	#0x5872	
    80d4:	4f 93       	tst.b	r15		
    80d6:	06 24       	jz	$+14     	;abs 0x80e4
    80d8:	1d 42 4e 11 	mov	&0x114e,r13	
    80dc:	0e 43       	clr	r14		
    80de:	5f 43       	mov.b	#1,	r15	;r3 As==01
    80e0:	b0 12 a6 4f 	call	#0x4fa6	
    80e4:	b0 12 82 66 	call	#0x6682	
    80e8:	5f 93       	cmp.b	#1,	r15	;r3 As==01
    80ea:	04 24       	jz	$+10     	;abs 0x80f4
    80ec:	b0 12 82 66 	call	#0x6682	
    80f0:	6f 93       	cmp.b	#2,	r15	;r3 As==10
    80f2:	06 20       	jnz	$+14     	;abs 0x8100
    80f4:	7f 40 12 00 	mov.b	#18,	r15	;#0x0012
    80f8:	b0 12 80 4d 	call	#0x4d80	
    80fc:	30 40 80 95 	br	#0x9580	
    8100:	f2 f0 fd ff fa 13 	and.b	#-3,	&0x13fa	;#0xfffd
    8106:	f2 f0 fd ff 04 14 	and.b	#-3,	&0x1404	;#0xfffd
    810c:	30 40 80 95 	br	#0x9580	
    8110:	b0 12 66 4d 	call	#0x4d66	
    8114:	5a 42 68 11 	mov.b	&0x1168,r10	
    8118:	b0 12 78 4d 	call	#0x4d78	
    811c:	7f 40 03 00 	mov.b	#3,	r15	;#0x0003
    8120:	b0 12 90 58 	call	#0x5890	
    8124:	4f 93       	tst.b	r15		
    8126:	03 24       	jz	$+8      	;abs 0x812e
    8128:	b0 12 d0 68 	call	#0x68d0	
    812c:	04 3c       	jmp	$+10     	;abs 0x8136
    812e:	6e 43       	mov.b	#2,	r14	;r3 As==10
    8130:	5f 43       	mov.b	#1,	r15	;r3 As==01
    8132:	b0 12 96 66 	call	#0x6696	
    8136:	1b 42 00 13 	mov	&0x1300,r11	
    813a:	b0 12 82 66 	call	#0x6682	
    813e:	6f 93       	cmp.b	#2,	r15	;r3 As==10
    8140:	0f 20       	jnz	$+32     	;abs 0x8160
    8142:	e2 b3 04 14 	bit.b	#2,	&0x1404	;r3 As==10
    8146:	0d 43       	clr	r13		
    8148:	0d 6d       	rlc	r13		
    814a:	4d 93       	tst.b	r13		
    814c:	09 24       	jz	$+20     	;abs 0x8160
    814e:	cb 93 2c 00 	tst.b	44(r11)	;0x002c(r11)
    8152:	06 20       	jnz	$+14     	;abs 0x8160
    8154:	7f 40 11 00 	mov.b	#17,	r15	;#0x0011
    8158:	b0 12 80 4d 	call	#0x4d80	
    815c:	30 40 80 95 	br	#0x9580	
    8160:	7f 40 05 00 	mov.b	#5,	r15	;#0x0005
    8164:	b0 12 ea 59 	call	#0x59ea	
    8168:	f2 f0 fd ff 04 14 	and.b	#-3,	&0x1404	;#0xfffd
    816e:	b0 12 66 50 	call	#0x5066	
    8172:	6f 43       	mov.b	#2,	r15	;r3 As==10
    8174:	b0 12 ea 59 	call	#0x59ea	
    8178:	82 93 24 18 	tst	&0x1824	
    817c:	02 24       	jz	$+6      	;abs 0x8182
    817e:	30 40 80 95 	br	#0x9580	
    8182:	f2 43 12 11 	mov.b	#-1,	&0x1112	;r3 As==11
    8186:	4e 4a       	mov.b	r10,	r14	
    8188:	0f 4b       	mov	r11,	r15	
    818a:	b0 12 2c 65 	call	#0x652c	
    818e:	30 40 80 95 	br	#0x9580	
    8192:	b0 12 66 4d 	call	#0x4d66	
    8196:	4b 4f       	mov.b	r15,	r11	
    8198:	c2 93 38 18 	tst.b	&0x1838	
    819c:	04 24       	jz	$+10     	;abs 0x81a6
    819e:	b0 12 78 4d 	call	#0x4d78	
    81a2:	30 40 80 95 	br	#0x9580	
    81a6:	d2 43 38 18 	mov.b	#1,	&0x1838	;r3 As==01
    81aa:	a2 92 66 11 	cmp	#4,	&0x1166	;r2 As==10
    81ae:	04 20       	jnz	$+10     	;abs 0x81b8
    81b0:	5f 43       	mov.b	#1,	r15	;r3 As==01
    81b2:	b0 12 00 5a 	call	#0x5a00	
    81b6:	03 3c       	jmp	$+8      	;abs 0x81be
    81b8:	7f 42       	mov.b	#8,	r15	;r2 As==11
    81ba:	b0 12 80 4d 	call	#0x4d80	
    81be:	4f 4b       	mov.b	r11,	r15	
    81c0:	b0 12 78 4d 	call	#0x4d78	
    81c4:	30 40 80 95 	br	#0x9580	
    81c8:	b0 12 66 4d 	call	#0x4d66	
    81cc:	c2 43 38 18 	mov.b	#0,	&0x1838	;r3 As==00
    81d0:	b0 12 78 4d 	call	#0x4d78	
    81d4:	30 40 80 95 	br	#0x9580	
    81d8:	b0 12 66 4d 	call	#0x4d66	
    81dc:	5b 42 19 11 	mov.b	&0x1119,r11	
    81e0:	b0 12 78 4d 	call	#0x4d78	
    81e4:	7b 90 05 00 	cmp.b	#5,	r11	;#0x0005
    81e8:	02 28       	jnc	$+6      	;abs 0x81ee
    81ea:	30 40 80 95 	br	#0x9580	
    81ee:	4f 4b       	mov.b	r11,	r15	
    81f0:	0f 5f       	rla	r15		
    81f2:	10 4f b6 a0 	br	-24394(r15)	;0xa0b6(r15)
    81f6:	b0 12 b0 58 	call	#0x58b0	
    81fa:	b0 12 66 4d 	call	#0x4d66	
    81fe:	4b 4f       	mov.b	r15,	r11	
    8200:	a2 93 66 11 	cmp	#2,	&0x1166	;r3 As==10
    8204:	04 24       	jz	$+10     	;abs 0x820e
    8206:	b0 12 78 4d 	call	#0x4d78	
    820a:	30 40 80 95 	br	#0x9580	
    820e:	b2 40 03 00 66 11 	mov	#3,	&0x1166	;#0x0003
    8214:	3e 40 18 00 	mov	#24,	r14	;#0x0018
    8218:	7f 40 1d 00 	mov.b	#29,	r15	;#0x001d
    821c:	b0 12 e6 5f 	call	#0x5fe6	
    8220:	f2 f0 ef ff 25 00 	and.b	#-17,	&0x0025	;#0xffef
    8226:	f2 f0 ef ff 23 00 	and.b	#-17,	&0x0023	;#0xffef
    822c:	f2 f0 ef ff 24 00 	and.b	#-17,	&0x0024	;#0xffef
    8232:	f2 d0 10 00 25 00 	bis.b	#16,	&0x0025	;#0x0010
    8238:	5f 43       	mov.b	#1,	r15	;r3 As==01
    823a:	b0 12 22 58 	call	#0x5822	
    823e:	3e 40 7f 02 	mov	#639,	r14	;#0x027f
    8242:	7f 40 1c 00 	mov.b	#28,	r15	;#0x001c
    8246:	b0 12 e6 5f 	call	#0x5fe6	
    824a:	b0 12 a4 69 	call	#0x69a4	
    824e:	b0 12 d0 69 	call	#0x69d0	
    8252:	3e 40 56 2a 	mov	#10838,	r14	;#0x2a56
    8256:	7f 40 17 00 	mov.b	#23,	r15	;#0x0017
    825a:	b0 12 e6 5f 	call	#0x5fe6	
    825e:	3e 40 ff 80 	mov	#-32513,r14	;#0x80ff
    8262:	7f 40 15 00 	mov.b	#21,	r15	;#0x0015
    8266:	b0 12 e6 5f 	call	#0x5fe6	
    826a:	4f 4b       	mov.b	r11,	r15	
    826c:	b0 12 78 4d 	call	#0x4d78	
    8270:	30 40 80 95 	br	#0x9580	
    8274:	b0 12 b0 58 	call	#0x58b0	
    8278:	7f 40 06 00 	mov.b	#6,	r15	;#0x0006
    827c:	b0 12 22 58 	call	#0x5822	
    8280:	b0 12 a4 69 	call	#0x69a4	
    8284:	b0 12 d0 69 	call	#0x69d0	
    8288:	b0 12 a2 60 	call	#0x60a2	
    828c:	b0 12 a2 5a 	call	#0x5aa2	
    8290:	b0 12 b0 58 	call	#0x58b0	
    8294:	7f 40 03 00 	mov.b	#3,	r15	;#0x0003
    8298:	b0 12 22 58 	call	#0x5822	
    829c:	b0 12 a2 5a 	call	#0x5aa2	
    82a0:	5f 43       	mov.b	#1,	r15	;r3 As==01
    82a2:	b0 12 b0 5a 	call	#0x5ab0	
    82a6:	7f 42       	mov.b	#8,	r15	;r2 As==11
    82a8:	b0 12 80 4d 	call	#0x4d80	
    82ac:	30 40 80 95 	br	#0x9580	
    82b0:	b0 12 b0 58 	call	#0x58b0	
    82b4:	b0 12 66 4d 	call	#0x4d66	
    82b8:	4b 4f       	mov.b	r15,	r11	
    82ba:	b0 12 7e 57 	call	#0x577e	
    82be:	4f 93       	tst.b	r15		
    82c0:	04 24       	jz	$+10     	;abs 0x82ca
    82c2:	4f 4b       	mov.b	r11,	r15	
    82c4:	b0 12 78 4d 	call	#0x4d78	
    82c8:	0d 3c       	jmp	$+28     	;abs 0x82e4
    82ca:	4f 4b       	mov.b	r11,	r15	
    82cc:	b0 12 78 4d 	call	#0x4d78	
    82d0:	7f 40 53 00 	mov.b	#83,	r15	;#0x0053
    82d4:	b0 12 9e 46 	call	#0x469e	
    82d8:	4f 43       	clr.b	r15		
    82da:	b0 12 9e 46 	call	#0x469e	
    82de:	4f 43       	clr.b	r15		
    82e0:	b0 12 9e 46 	call	#0x469e	
    82e4:	b0 12 a2 5a 	call	#0x5aa2	
    82e8:	6f 43       	mov.b	#2,	r15	;r3 As==10
    82ea:	b0 12 b0 5a 	call	#0x5ab0	
    82ee:	30 40 80 95 	br	#0x9580	
    82f2:	b0 12 66 4d 	call	#0x4d66	
    82f6:	5b 42 54 11 	mov.b	&0x1154,r11	
    82fa:	b0 12 78 4d 	call	#0x4d78	
    82fe:	6b 92       	cmp.b	#4,	r11	;r2 As==10
    8300:	08 24       	jz	$+18     	;abs 0x8312
    8302:	7b 92       	cmp.b	#8,	r11	;r2 As==11
    8304:	0a 24       	jz	$+22     	;abs 0x831a
    8306:	6b 93       	cmp.b	#2,	r11	;r3 As==10
    8308:	1e 20       	jnz	$+62     	;abs 0x8346
    830a:	b0 12 ae 9c 	call	#0x9cae	
    830e:	30 40 80 95 	br	#0x9580	
    8312:	b0 12 4e 5f 	call	#0x5f4e	
    8316:	30 40 80 95 	br	#0x9580	
    831a:	b0 12 b0 58 	call	#0x58b0	
    831e:	7f 40 09 00 	mov.b	#9,	r15	;#0x0009
    8322:	b0 12 22 58 	call	#0x5822	
    8326:	b0 12 a2 5a 	call	#0x5aa2	
    832a:	b0 12 66 5b 	call	#0x5b66	
    832e:	b0 12 66 4d 	call	#0x4d66	
    8332:	92 43 54 11 	mov	#1,	&0x1154	;r3 As==01
    8336:	b0 12 78 4d 	call	#0x4d78	
    833a:	7f 40 03 00 	mov.b	#3,	r15	;#0x0003
    833e:	b0 12 80 59 	call	#0x5980	
    8342:	30 40 80 95 	br	#0x9580	
    8346:	b0 12 66 5b 	call	#0x5b66	
    834a:	30 40 80 95 	br	#0x9580	
    834e:	b0 12 70 59 	call	#0x5970	
    8352:	30 40 80 95 	br	#0x9580	
    8356:	b0 12 66 4d 	call	#0x4d66	
    835a:	81 4f 0a 00 	mov	r15,	10(r1)	;0x000a(r1)
    835e:	b0 12 4e 77 	call	#0x774e	
    8362:	1f 41 0a 00 	mov	10(r1),	r15	;0x000a(r1)
    8366:	b0 12 78 4d 	call	#0x4d78	
    836a:	30 40 80 95 	br	#0x9580	
    836e:	b0 12 66 4d 	call	#0x4d66	
    8372:	d2 42 1c 15 16 11 	mov.b	&0x151c,&0x1116	
    8378:	f2 40 03 00 62 11 	mov.b	#3,	&0x1162	;#0x0003
    837e:	b0 12 78 4d 	call	#0x4d78	
    8382:	c2 93 16 11 	tst.b	&0x1116	
    8386:	02 20       	jnz	$+6      	;abs 0x838c
    8388:	b0 12 b6 75 	call	#0x75b6	
    838c:	c2 93 16 11 	tst.b	&0x1116	
    8390:	02 24       	jz	$+6      	;abs 0x8396
    8392:	30 40 80 95 	br	#0x9580	
    8396:	7f 40 09 00 	mov.b	#9,	r15	;#0x0009
    839a:	b0 12 80 4d 	call	#0x4d80	
    839e:	30 40 80 95 	br	#0x9580	
    83a2:	1b 42 74 11 	mov	&0x1174,r11	
    83a6:	67 4b       	mov.b	@r11,	r7	
    83a8:	4e 47       	mov.b	r7,	r14	
    83aa:	0e 5b       	add	r11,	r14	
    83ac:	6f 4e       	mov.b	@r14,	r15	
    83ae:	4f 5f       	rla.b	r15		
    83b0:	0f 43       	clr	r15		
    83b2:	0f 6f       	rlc	r15		
    83b4:	cb 4f 2b 00 	mov.b	r15,	43(r11)	;0x002b(r11)
    83b8:	6f 4e       	mov.b	@r14,	r15	
    83ba:	7f f0 7f 00 	and.b	#127,	r15	;#0x007f
    83be:	cb 4f 29 00 	mov.b	r15,	41(r11)	;0x0029(r11)
    83c2:	db 4e ff ff 28 00 	mov.b	-1(r14),40(r11)	;0xffff(r14), 0x0028(r11)
    83c8:	59 4b 02 00 	mov.b	2(r11),	r9	;0x0002(r11)
    83cc:	5a 4b 01 00 	mov.b	1(r11),	r10	;0x0001(r11)
    83d0:	b0 12 66 4d 	call	#0x4d66	
    83d4:	58 42 2a 12 	mov.b	&0x122a,r8	
    83d8:	b0 12 78 4d 	call	#0x4d78	
    83dc:	48 93       	tst.b	r8		
    83de:	49 24       	jz	$+148    	;abs 0x8472
    83e0:	4e 49       	mov.b	r9,	r14	
    83e2:	8e 10       	swpb	r14		
    83e4:	4f 4a       	mov.b	r10,	r15	
    83e6:	0e df       	bis	r15,	r14	
    83e8:	8e 10       	swpb	r14		
    83ea:	4e 4e       	mov.b	r14,	r14	
    83ec:	12 c3       	clrc			
    83ee:	0e 10       	rrc	r14		
    83f0:	12 c3       	clrc			
    83f2:	0e 10       	rrc	r14		
    83f4:	3e f0 03 00 	and	#3,	r14	;#0x0003
    83f8:	2e 93       	cmp	#2,	r14	;r3 As==10
    83fa:	1e 20       	jnz	$+62     	;abs 0x8438
    83fc:	5a 4b 07 00 	mov.b	7(r11),	r10	;0x0007(r11)
    8400:	8a 10       	swpb	r10		
    8402:	5f 4b 06 00 	mov.b	6(r11),	r15	;0x0006(r11)
    8406:	0a df       	bis	r15,	r10	
    8408:	b0 12 66 4d 	call	#0x4d66	
    840c:	19 42 ee 12 	mov	&0x12ee,r9	
    8410:	b0 12 78 4d 	call	#0x4d78	
    8414:	0a 99       	cmp	r9,	r10	
    8416:	0b 24       	jz	$+24     	;abs 0x842e
    8418:	5f 4b 07 00 	mov.b	7(r11),	r15	;0x0007(r11)
    841c:	8f 10       	swpb	r15		
    841e:	5e 4b 06 00 	mov.b	6(r11),	r14	;0x0006(r11)
    8422:	0f de       	bis	r14,	r15	
    8424:	1e 43       	mov	#1,	r14	;r3 As==01
    8426:	3f 93       	cmp	#-1,	r15	;r3 As==11
    8428:	03 24       	jz	$+8      	;abs 0x8430
    842a:	0e 43       	clr	r14		
    842c:	01 3c       	jmp	$+4      	;abs 0x8430
    842e:	1e 43       	mov	#1,	r14	;r3 As==01
    8430:	0e 93       	tst	r14		
    8432:	1f 20       	jnz	$+64     	;abs 0x8472
    8434:	30 40 36 8b 	br	#0x8b36	
    8438:	3e 90 03 00 	cmp	#3,	r14	;#0x0003
    843c:	02 24       	jz	$+6      	;abs 0x8442
    843e:	30 40 36 8b 	br	#0x8b36	
    8442:	91 42 14 15 02 00 	mov	&0x1514,2(r1)	;0x0002(r1)
    8448:	91 42 16 15 04 00 	mov	&0x1516,4(r1)	;0x0004(r1)
    844e:	91 42 18 15 06 00 	mov	&0x1518,6(r1)	;0x0006(r1)
    8454:	91 42 1a 15 08 00 	mov	&0x151a,8(r1)	;0x0008(r1)
    845a:	3d 42       	mov	#8,	r13	;r2 As==11
    845c:	0e 41       	mov	r1,	r14	
    845e:	2e 53       	incd	r14		
    8460:	0f 4b       	mov	r11,	r15	
    8462:	3f 50 06 00 	add	#6,	r15	;#0x0006
    8466:	b0 12 88 9e 	call	#0x9e88	
    846a:	0f 93       	tst	r15		
    846c:	02 24       	jz	$+6      	;abs 0x8472
    846e:	30 40 36 8b 	br	#0x8b36	
    8472:	77 90 0d 00 	cmp.b	#13,	r7	;#0x000d
    8476:	02 2c       	jc	$+6      	;abs 0x847c
    8478:	30 40 36 8b 	br	#0x8b36	
    847c:	1b 42 74 11 	mov	&0x1174,r11	
    8480:	5e 4b 02 00 	mov.b	2(r11),	r14	;0x0002(r11)
    8484:	8e 10       	swpb	r14		
    8486:	5f 4b 01 00 	mov.b	1(r11),	r15	;0x0001(r11)
    848a:	0e df       	bis	r15,	r14	
    848c:	0f 4e       	mov	r14,	r15	
    848e:	8f 10       	swpb	r15		
    8490:	4f 4f       	mov.b	r15,	r15	
    8492:	12 c3       	clrc			
    8494:	0f 10       	rrc	r15		
    8496:	12 c3       	clrc			
    8498:	0f 10       	rrc	r15		
    849a:	3f f0 03 00 	and	#3,	r15	;#0x0003
    849e:	0c 4b       	mov	r11,	r12	
    84a0:	3c 50 06 00 	add	#6,	r12	;#0x0006
    84a4:	8e 10       	swpb	r14		
    84a6:	4e 4e       	mov.b	r14,	r14	
    84a8:	7d 40 06 00 	mov.b	#6,	r13	;#0x0006
    84ac:	12 c3       	clrc			
    84ae:	0e 10       	rrc	r14		
    84b0:	7d 53       	add.b	#-1,	r13	;r3 As==11
    84b2:	fc 23       	jnz	$-6      	;abs 0x84ac
    84b4:	3e 90 03 00 	cmp	#3,	r14	;#0x0003
    84b8:	02 24       	jz	$+6      	;abs 0x84be
    84ba:	2e 43       	mov	#2,	r14	;r3 As==10
    84bc:	01 3c       	jmp	$+4      	;abs 0x84c0
    84be:	3e 42       	mov	#8,	r14	;r2 As==11
    84c0:	3f 90 03 00 	cmp	#3,	r15	;#0x0003
    84c4:	02 24       	jz	$+6      	;abs 0x84ca
    84c6:	2f 43       	mov	#2,	r15	;r3 As==10
    84c8:	01 3c       	jmp	$+4      	;abs 0x84cc
    84ca:	3f 42       	mov	#8,	r15	;r2 As==11
    84cc:	0c 5f       	add	r15,	r12	
    84ce:	0a 43       	clr	r10		
    84d0:	0f 43       	clr	r15		
    84d2:	0d 4c       	mov	r12,	r13	
    84d4:	0d 5f       	add	r15,	r13	
    84d6:	6d 4d       	mov.b	@r13,	r13	
    84d8:	0a 5d       	add	r13,	r10	
    84da:	1f 53       	inc	r15		
    84dc:	0f 9e       	cmp	r14,	r15	
    84de:	f9 3b       	jl	$-12     	;abs 0x84d2
    84e0:	58 4b 03 00 	mov.b	3(r11),	r8	;0x0003(r11)
    84e4:	f2 43 26 18 	mov.b	#-1,	&0x1826	;r3 As==11
    84e8:	b0 12 66 4d 	call	#0x4d66	
    84ec:	5c 42 26 18 	mov.b	&0x1826,r12	
    84f0:	3e 40 c2 11 	mov	#4546,	r14	;#0x11c2
    84f4:	0d 43       	clr	r13		
    84f6:	2a 9e       	cmp	@r14,	r10	
    84f8:	0a 20       	jnz	$+22     	;abs 0x850e
    84fa:	ce 98 02 00 	cmp.b	r8,	2(r14)	;0x0002(r14)
    84fe:	06 20       	jnz	$+14     	;abs 0x850c
    8500:	c2 4c 26 18 	mov.b	r12,	&0x1826	
    8504:	b0 12 78 4d 	call	#0x4d78	
    8508:	30 40 32 8b 	br	#0x8b32	
    850c:	4c 4d       	mov.b	r13,	r12	
    850e:	1d 53       	inc	r13		
    8510:	2e 52       	add	#4,	r14	;r2 As==10
    8512:	2d 92       	cmp	#4,	r13	;r2 As==10
    8514:	f0 23       	jnz	$-30     	;abs 0x84f6
    8516:	c2 4c 26 18 	mov.b	r12,	&0x1826	
    851a:	b0 12 78 4d 	call	#0x4d78	
    851e:	59 42 26 18 	mov.b	&0x1826,r9	
    8522:	b0 12 66 4d 	call	#0x4d66	
    8526:	79 93       	cmp.b	#-1,	r9	;r3 As==11
    8528:	03 24       	jz	$+8      	;abs 0x8530
    852a:	c2 99 50 11 	cmp.b	r9,	&0x1150	
    852e:	04 20       	jnz	$+10     	;abs 0x8538
    8530:	59 42 50 11 	mov.b	&0x1150,r9	
    8534:	5d 43       	mov.b	#1,	r13	;r3 As==01
    8536:	01 3c       	jmp	$+4      	;abs 0x853a
    8538:	4d 43       	clr.b	r13		
    853a:	4e 49       	mov.b	r9,	r14	
    853c:	0e 5e       	rla	r14		
    853e:	0e 5e       	rla	r14		
    8540:	8e 4a c2 11 	mov	r10,	4546(r14);0x11c2(r14)
    8544:	ce 48 c4 11 	mov.b	r8,	4548(r14);0x11c4(r14)
    8548:	4d 93       	tst.b	r13		
    854a:	07 24       	jz	$+16     	;abs 0x855a
    854c:	5e 42 50 11 	mov.b	&0x1150,r14	
    8550:	5e 53       	inc.b	r14		
    8552:	7e f0 03 00 	and.b	#3,	r14	;#0x0003
    8556:	c2 4e 50 11 	mov.b	r14,	&0x1150	
    855a:	b0 12 78 4d 	call	#0x4d78	
    855e:	b0 12 66 50 	call	#0x5066	
    8562:	b0 12 66 4d 	call	#0x4d66	
    8566:	49 4f       	mov.b	r15,	r9	
    8568:	0f 4b       	mov	r11,	r15	
    856a:	b0 12 e6 47 	call	#0x47e6	
    856e:	6a 4f       	mov.b	@r15,	r10	
    8570:	4f 49       	mov.b	r9,	r15	
    8572:	b0 12 78 4d 	call	#0x4d78	
    8576:	cb 93 2b 00 	tst.b	43(r11)	;0x002b(r11)
    857a:	02 20       	jnz	$+6      	;abs 0x8580
    857c:	30 40 32 8b 	br	#0x8b32	
    8580:	7a 90 3f 00 	cmp.b	#63,	r10	;#0x003f
    8584:	02 24       	jz	$+6      	;abs 0x858a
    8586:	30 40 32 8b 	br	#0x8b32	
    858a:	5a 4b 07 00 	mov.b	7(r11),	r10	;0x0007(r11)
    858e:	8a 10       	swpb	r10		
    8590:	5f 4b 06 00 	mov.b	6(r11),	r15	;0x0006(r11)
    8594:	0a df       	bis	r15,	r10	
    8596:	b0 12 0c 61 	call	#0x610c	
    859a:	0a 9f       	cmp	r15,	r10	
    859c:	0b 24       	jz	$+24     	;abs 0x85b4
    859e:	5f 4b 07 00 	mov.b	7(r11),	r15	;0x0007(r11)
    85a2:	8f 10       	swpb	r15		
    85a4:	5e 4b 06 00 	mov.b	6(r11),	r14	;0x0006(r11)
    85a8:	0f de       	bis	r14,	r15	
    85aa:	1e 43       	mov	#1,	r14	;r3 As==01
    85ac:	3f 93       	cmp	#-1,	r15	;r3 As==11
    85ae:	03 24       	jz	$+8      	;abs 0x85b6
    85b0:	0e 43       	clr	r14		
    85b2:	01 3c       	jmp	$+4      	;abs 0x85b6
    85b4:	1e 43       	mov	#1,	r14	;r3 As==01
    85b6:	5f 4b 0b 00 	mov.b	11(r11),r15	;0x000b(r11)
    85ba:	0e 93       	tst	r14		
    85bc:	02 20       	jnz	$+6      	;abs 0x85c2
    85be:	30 40 1a 8b 	br	#0x8b1a	
    85c2:	7f 90 70 00 	cmp.b	#112,	r15	;#0x0070
    85c6:	89 24       	jz	$+276    	;abs 0x86da
    85c8:	7f 90 71 00 	cmp.b	#113,	r15	;#0x0071
    85cc:	09 2c       	jc	$+20     	;abs 0x85e0
    85ce:	7f 90 60 00 	cmp.b	#96,	r15	;#0x0060
    85d2:	0d 24       	jz	$+28     	;abs 0x85ee
    85d4:	7f 90 61 00 	cmp.b	#97,	r15	;#0x0061
    85d8:	02 24       	jz	$+6      	;abs 0x85de
    85da:	30 40 32 8b 	br	#0x8b32	
    85de:	61 3c       	jmp	$+196    	;abs 0x86a2
    85e0:	7f 90 71 00 	cmp.b	#113,	r15	;#0x0071
    85e4:	02 24       	jz	$+6      	;abs 0x85ea
    85e6:	30 40 32 8b 	br	#0x8b32	
    85ea:	30 40 6c 89 	br	#0x896c	
    85ee:	5a 4b 0c 00 	mov.b	12(r11),r10	;0x000c(r11)
    85f2:	8a 10       	swpb	r10		
    85f4:	5f 4b 0d 00 	mov.b	13(r11),r15	;0x000d(r11)
    85f8:	0a df       	bis	r15,	r10	
    85fa:	0f 4b       	mov	r11,	r15	
    85fc:	3f 50 0e 00 	add	#14,	r15	;#0x000e
    8600:	b0 12 14 46 	call	#0x4614	
    8604:	08 4e       	mov	r14,	r8	
    8606:	09 4f       	mov	r15,	r9	
    8608:	1a 93       	cmp	#1,	r10	;r3 As==01
    860a:	05 20       	jnz	$+12     	;abs 0x8616
    860c:	1e 42 46 11 	mov	&0x1146,r14	
    8610:	1f 42 48 11 	mov	&0x1148,r15	
    8614:	02 3c       	jmp	$+6      	;abs 0x861a
    8616:	0e 43       	clr	r14		
    8618:	0f 43       	clr	r15		
    861a:	c2 93 d8 11 	tst.b	&0x11d8	
    861e:	02 20       	jnz	$+6      	;abs 0x8624
    8620:	30 40 32 8b 	br	#0x8b32	
    8624:	0e 93       	tst	r14		
    8626:	07 20       	jnz	$+16     	;abs 0x8636
    8628:	0f 93       	tst	r15		
    862a:	05 20       	jnz	$+12     	;abs 0x8636
    862c:	08 93       	tst	r8		
    862e:	10 20       	jnz	$+34     	;abs 0x8650
    8630:	09 93       	tst	r9		
    8632:	05 24       	jz	$+12     	;abs 0x863e
    8634:	0d 3c       	jmp	$+28     	;abs 0x8650
    8636:	08 93       	tst	r8		
    8638:	02 20       	jnz	$+6      	;abs 0x863e
    863a:	09 93       	tst	r9		
    863c:	1f 24       	jz	$+64     	;abs 0x867c
    863e:	0c 48       	mov	r8,	r12	
    8640:	0d 49       	mov	r9,	r13	
    8642:	0c 8e       	sub	r14,	r12	
    8644:	0d 7f       	subc	r15,	r13	
    8646:	0d 93       	tst	r13		
    8648:	1e 38       	jl	$+62     	;abs 0x8686
    864a:	02 20       	jnz	$+6      	;abs 0x8650
    864c:	1c 93       	cmp	#1,	r12	;r3 As==01
    864e:	1b 28       	jnc	$+56     	;abs 0x8686
    8650:	1a 93       	cmp	#1,	r10	;r3 As==01
    8652:	14 20       	jnz	$+42     	;abs 0x867c
    8654:	77 50 ed ff 	add.b	#-19,	r7	;#0xffed
    8658:	67 92       	cmp.b	#4,	r7	;r2 As==10
    865a:	02 2c       	jc	$+6      	;abs 0x8660
    865c:	4d 47       	mov.b	r7,	r13	
    865e:	01 3c       	jmp	$+4      	;abs 0x8662
    8660:	2d 42       	mov	#4,	r13	;r2 As==10
    8662:	0e 4b       	mov	r11,	r14	
    8664:	3e 50 12 00 	add	#18,	r14	;#0x0012
    8668:	3f 40 00 15 	mov	#5376,	r15	;#0x1500
    866c:	b0 12 a8 9e 	call	#0x9ea8	
    8670:	82 48 46 11 	mov	r8,	&0x1146	
    8674:	82 49 48 11 	mov	r9,	&0x1148	
    8678:	b0 12 c4 50 	call	#0x50c4	
    867c:	0f 4a       	mov	r10,	r15	
    867e:	b0 12 80 67 	call	#0x6780	
    8682:	30 40 32 8b 	br	#0x8b32	
    8686:	08 9e       	cmp	r14,	r8	
    8688:	0a 20       	jnz	$+22     	;abs 0x869e
    868a:	09 9f       	cmp	r15,	r9	
    868c:	08 20       	jnz	$+18     	;abs 0x869e
    868e:	1a 93       	cmp	#1,	r10	;r3 As==01
    8690:	02 24       	jz	$+6      	;abs 0x8696
    8692:	30 40 32 8b 	br	#0x8b32	
    8696:	d2 53 84 11 	inc.b	&0x1184	
    869a:	30 40 32 8b 	br	#0x8b32	
    869e:	0f 4a       	mov	r10,	r15	
    86a0:	18 3c       	jmp	$+50     	;abs 0x86d2
    86a2:	c2 93 d8 11 	tst.b	&0x11d8	
    86a6:	02 20       	jnz	$+6      	;abs 0x86ac
    86a8:	30 40 32 8b 	br	#0x8b32	
    86ac:	5f 4b 0c 00 	mov.b	12(r11),r15	;0x000c(r11)
    86b0:	8f 10       	swpb	r15		
    86b2:	5e 4b 0d 00 	mov.b	13(r11),r14	;0x000d(r11)
    86b6:	0f de       	bis	r14,	r15	
    86b8:	1f 93       	cmp	#1,	r15	;r3 As==01
    86ba:	02 24       	jz	$+6      	;abs 0x86c0
    86bc:	30 40 32 8b 	br	#0x8b32	
    86c0:	82 93 46 11 	tst	&0x1146	
    86c4:	05 20       	jnz	$+12     	;abs 0x86d0
    86c6:	82 93 48 11 	tst	&0x1148	
    86ca:	02 20       	jnz	$+6      	;abs 0x86d0
    86cc:	30 40 32 8b 	br	#0x8b32	
    86d0:	1f 43       	mov	#1,	r15	;r3 As==01
    86d2:	b0 12 d6 65 	call	#0x65d6	
    86d6:	30 40 32 8b 	br	#0x8b32	
    86da:	5f 4b 07 00 	mov.b	7(r11),	r15	;0x0007(r11)
    86de:	8f 10       	swpb	r15		
    86e0:	5e 4b 06 00 	mov.b	6(r11),	r14	;0x0006(r11)
    86e4:	0f de       	bis	r14,	r15	
    86e6:	3f 93       	cmp	#-1,	r15	;r3 As==11
    86e8:	71 20       	jnz	$+228    	;abs 0x87cc
    86ea:	5a 4b 09 00 	mov.b	9(r11),	r10	;0x0009(r11)
    86ee:	8a 10       	swpb	r10		
    86f0:	5f 4b 08 00 	mov.b	8(r11),	r15	;0x0008(r11)
    86f4:	0a df       	bis	r15,	r10	
    86f6:	57 4b 0c 00 	mov.b	12(r11),r7	;0x000c(r11)
    86fa:	0f 4a       	mov	r10,	r15	
    86fc:	b0 12 8e 47 	call	#0x478e	
    8700:	7f 93       	cmp.b	#-1,	r15	;r3 As==11
    8702:	03 24       	jz	$+8      	;abs 0x870a
    8704:	5e 4b 0d 00 	mov.b	13(r11),r14	;0x000d(r11)
    8708:	15 3c       	jmp	$+44     	;abs 0x8734
    870a:	3f 40 4b 13 	mov	#4939,	r15	;#0x134b
    870e:	49 43       	clr.b	r9		
    8710:	6e 4f       	mov.b	@r15,	r14	
    8712:	1e f3       	and	#1,	r14	;r3 As==01
    8714:	08 24       	jz	$+18     	;abs 0x8726
    8716:	59 53       	inc.b	r9		
    8718:	3f 50 0e 00 	add	#14,	r15	;#0x000e
    871c:	79 90 0a 00 	cmp.b	#10,	r9	;#0x000a
    8720:	f7 23       	jnz	$-16     	;abs 0x8710
    8722:	30 40 56 95 	br	#0x9556	
    8726:	0e 4a       	mov	r10,	r14	
    8728:	4f 49       	mov.b	r9,	r15	
    872a:	b0 12 c8 99 	call	#0x99c8	
    872e:	5e 4b 0d 00 	mov.b	13(r11),r14	;0x000d(r11)
    8732:	4f 49       	mov.b	r9,	r15	
    8734:	b0 12 78 9a 	call	#0x9a78	
    8738:	0f 3c       	jmp	$+32     	;abs 0x8758
    873a:	4e 49       	mov.b	r9,	r14	
    873c:	0e 5e       	rla	r14		
    873e:	0d 4e       	mov	r14,	r13	
    8740:	0d 5d       	rla	r13		
    8742:	0d 5d       	rla	r13		
    8744:	0d 5d       	rla	r13		
    8746:	0d 8e       	sub	r14,	r13	
    8748:	1f 4d 46 13 	mov	4934(r13),r15	;0x1346(r13)
    874c:	b0 12 3e 9c 	call	#0x9c3e	
    8750:	0e 4a       	mov	r10,	r14	
    8752:	4f 49       	mov.b	r9,	r15	
    8754:	b0 12 c8 99 	call	#0x99c8	
    8758:	77 f0 0f 00 	and.b	#15,	r7	;#0x000f
    875c:	37 24       	jz	$+112    	;abs 0x87cc
    875e:	68 4b       	mov.b	@r11,	r8	
    8760:	78 50 f3 ff 	add.b	#-13,	r8	;#0xfff3
    8764:	78 90 1d 00 	cmp.b	#29,	r8	;#0x001d
    8768:	04 2c       	jc	$+10     	;abs 0x8772
    876a:	0f 4b       	mov	r11,	r15	
    876c:	3f 50 0c 00 	add	#12,	r15	;#0x000c
    8770:	01 3c       	jmp	$+4      	;abs 0x8774
    8772:	0f 43       	clr	r15		
    8774:	48 48       	mov.b	r8,	r8	
    8776:	08 5f       	add	r15,	r8	
    8778:	4e 47       	mov.b	r7,	r14	
    877a:	0f 4e       	mov	r14,	r15	
    877c:	0f 5f       	rla	r15		
    877e:	0f 5e       	add	r14,	r15	
    8780:	08 8f       	sub	r15,	r8	
    8782:	b0 12 0c 61 	call	#0x610c	
    8786:	06 4f       	mov	r15,	r6	
    8788:	09 43       	clr	r9		
    878a:	0e 49       	mov	r9,	r14	
    878c:	0e 5e       	rla	r14		
    878e:	0e 59       	add	r9,	r14	
    8790:	0e 58       	add	r8,	r14	
    8792:	6d 4e       	mov.b	@r14,	r13	
    8794:	8d 10       	swpb	r13		
    8796:	5c 4e 01 00 	mov.b	1(r14),	r12	;0x0001(r14)
    879a:	0d dc       	bis	r12,	r13	
    879c:	0d 96       	cmp	r6,	r13	
    879e:	13 20       	jnz	$+40     	;abs 0x87c6
    87a0:	55 4e 02 00 	mov.b	2(r14),	r5	;0x0002(r14)
    87a4:	0f 4a       	mov	r10,	r15	
    87a6:	b0 12 8e 47 	call	#0x478e	
    87aa:	7f 93       	cmp.b	#-1,	r15	;r3 As==11
    87ac:	0c 24       	jz	$+26     	;abs 0x87c6
    87ae:	4e 4f       	mov.b	r15,	r14	
    87b0:	0e 5e       	rla	r14		
    87b2:	0d 4e       	mov	r14,	r13	
    87b4:	0d 5d       	rla	r13		
    87b6:	0d 5d       	rla	r13		
    87b8:	0d 5d       	rla	r13		
    87ba:	0d 8e       	sub	r14,	r13	
    87bc:	cd 45 4f 13 	mov.b	r5,	4943(r13);0x134f(r13)
    87c0:	fd 40 06 00 4d 13 	mov.b	#6,	4941(r13);#0x0006, 0x134d(r13)
    87c6:	19 53       	inc	r9		
    87c8:	49 97       	cmp.b	r7,	r9	
    87ca:	df 2b       	jnc	$-64     	;abs 0x878a
    87cc:	6e 4b       	mov.b	@r11,	r14	
    87ce:	7e 50 f3 ff 	add.b	#-13,	r14	;#0xfff3
    87d2:	5d 4b 0c 00 	mov.b	12(r11),r13	;0x000c(r11)
    87d6:	7d f0 0f 00 	and.b	#15,	r13	;#0x000f
    87da:	4f 4d       	mov.b	r13,	r15	
    87dc:	4f 5f       	rla.b	r15		
    87de:	4f 5d       	add.b	r13,	r15	
    87e0:	4e 8f       	sub.b	r15,	r14	
    87e2:	7e 90 1d 00 	cmp.b	#29,	r14	;#0x001d
    87e6:	02 28       	jnc	$+6      	;abs 0x87ec
    87e8:	30 40 32 8b 	br	#0x8b32	
    87ec:	7e 90 07 00 	cmp.b	#7,	r14	;#0x0007
    87f0:	02 24       	jz	$+6      	;abs 0x87f6
    87f2:	30 40 32 8b 	br	#0x8b32	
    87f6:	5a 4b 09 00 	mov.b	9(r11),	r10	;0x0009(r11)
    87fa:	5d 4b 08 00 	mov.b	8(r11),	r13	;0x0008(r11)
    87fe:	57 4b 0e 00 	mov.b	14(r11),r7	;0x000e(r11)
    8802:	5f 4b 0f 00 	mov.b	15(r11),r15	;0x000f(r11)
    8806:	8f 10       	swpb	r15		
    8808:	5e 4b 10 00 	mov.b	16(r11),r14	;0x0010(r11)
    880c:	0f de       	bis	r14,	r15	
    880e:	3f 93       	cmp	#-1,	r15	;r3 As==11
    8810:	a9 24       	jz	$+340    	;abs 0x8964
    8812:	4a 4a       	mov.b	r10,	r10	
    8814:	8a 10       	swpb	r10		
    8816:	4f 4d       	mov.b	r13,	r15	
    8818:	0a df       	bis	r15,	r10	
    881a:	5f 4b 11 00 	mov.b	17(r11),r15	;0x0011(r11)
    881e:	8f 10       	swpb	r15		
    8820:	5e 4b 12 00 	mov.b	18(r11),r14	;0x0012(r11)
    8824:	0f de       	bis	r14,	r15	
    8826:	0f 93       	tst	r15		
    8828:	32 20       	jnz	$+102    	;abs 0x888e
    882a:	0f 4a       	mov	r10,	r15	
    882c:	b0 12 8e 47 	call	#0x478e	
    8830:	7f 93       	cmp.b	#-1,	r15	;r3 As==11
    8832:	1f 20       	jnz	$+64     	;abs 0x8872
    8834:	3e 40 4b 13 	mov	#4939,	r14	;#0x134b
    8838:	4f 43       	clr.b	r15		
    883a:	6d 4e       	mov.b	@r14,	r13	
    883c:	1d f3       	and	#1,	r13	;r3 As==01
    883e:	08 24       	jz	$+18     	;abs 0x8850
    8840:	5f 53       	inc.b	r15		
    8842:	3e 50 0e 00 	add	#14,	r14	;#0x000e
    8846:	7f 90 0a 00 	cmp.b	#10,	r15	;#0x000a
    884a:	f7 23       	jnz	$-16     	;abs 0x883a
    884c:	30 40 6c 95 	br	#0x956c	
    8850:	0e 4a       	mov	r10,	r14	
    8852:	0d 3c       	jmp	$+28     	;abs 0x886e
    8854:	4e 49       	mov.b	r9,	r14	
    8856:	0e 5e       	rla	r14		
    8858:	0d 4e       	mov	r14,	r13	
    885a:	0d 5d       	rla	r13		
    885c:	0d 5d       	rla	r13		
    885e:	0d 5d       	rla	r13		
    8860:	0d 8e       	sub	r14,	r13	
    8862:	1f 4d 46 13 	mov	4934(r13),r15	;0x1346(r13)
    8866:	b0 12 3e 9c 	call	#0x9c3e	
    886a:	0e 4a       	mov	r10,	r14	
    886c:	4f 49       	mov.b	r9,	r15	
    886e:	b0 12 c8 99 	call	#0x99c8	
    8872:	0f 4a       	mov	r10,	r15	
    8874:	b0 12 8e 47 	call	#0x478e	
    8878:	7f 93       	cmp.b	#-1,	r15	;r3 As==11
    887a:	09 24       	jz	$+20     	;abs 0x888e
    887c:	4f 4f       	mov.b	r15,	r15	
    887e:	0f 5f       	rla	r15		
    8880:	0d 4f       	mov	r15,	r13	
    8882:	0d 5d       	rla	r13		
    8884:	0d 5d       	rla	r13		
    8886:	0d 5d       	rla	r13		
    8888:	0d 8f       	sub	r15,	r13	
    888a:	fd d2 4b 13 	bis.b	#8,	4939(r13);r2 As==11, 0x134b(r13)
    888e:	54 4b 11 00 	mov.b	17(r11),r4	;0x0011(r11)
    8892:	59 4b 12 00 	mov.b	18(r11),r9	;0x0012(r11)
    8896:	58 4b 0f 00 	mov.b	15(r11),r8	;0x000f(r11)
    889a:	55 4b 10 00 	mov.b	16(r11),r5	;0x0010(r11)
    889e:	0f 4a       	mov	r10,	r15	
    88a0:	b0 12 b2 47 	call	#0x47b2	
    88a4:	06 4f       	mov	r15,	r6	
    88a6:	0f 4a       	mov	r10,	r15	
    88a8:	b0 12 52 9a 	call	#0x9a52	
    88ac:	4d 4f       	mov.b	r15,	r13	
    88ae:	7f 90 0a 00 	cmp.b	#10,	r15	;#0x000a
    88b2:	34 24       	jz	$+106    	;abs 0x891c
    88b4:	4e 44       	mov.b	r4,	r14	
    88b6:	8e 10       	swpb	r14		
    88b8:	49 49       	mov.b	r9,	r9	
    88ba:	0e d9       	bis	r9,	r14	
    88bc:	48 48       	mov.b	r8,	r8	
    88be:	88 10       	swpb	r8		
    88c0:	4c 45       	mov.b	r5,	r12	
    88c2:	08 dc       	bis	r12,	r8	
    88c4:	5f 92 e2 11 	cmp.b	&0x11e2,r15	
    88c8:	1a 20       	jnz	$+54     	;abs 0x88fe
    88ca:	36 90 32 00 	cmp	#50,	r6	;#0x0032
    88ce:	26 2c       	jc	$+78     	;abs 0x891c
    88d0:	4c 4f       	mov.b	r15,	r12	
    88d2:	0c 5c       	rla	r12		
    88d4:	0c 5c       	rla	r12		
    88d6:	0c 5c       	rla	r12		
    88d8:	0f 4c       	mov	r12,	r15	
    88da:	3f 50 34 12 	add	#4660,	r15	;#0x1234
    88de:	8f 4a 00 00 	mov	r10,	0(r15)	;0x0000(r15)
    88e2:	8f 48 02 00 	mov	r8,	2(r15)	;0x0002(r15)
    88e6:	8f 4e 04 00 	mov	r14,	4(r15)	;0x0004(r15)
    88ea:	3c 50 3a 12 	add	#4666,	r12	;#0x123a
    88ee:	dc 43 00 00 	mov.b	#1,	0(r12)	;r3 As==01, 0x0000(r12)
    88f2:	cc 43 01 00 	mov.b	#0,	1(r12)	;r3 As==00, 0x0001(r12)
    88f6:	5d 53       	inc.b	r13		
    88f8:	c2 4d e2 11 	mov.b	r13,	&0x11e2	
    88fc:	0f 3c       	jmp	$+32     	;abs 0x891c
    88fe:	4d 4f       	mov.b	r15,	r13	
    8900:	0d 5d       	rla	r13		
    8902:	0d 5d       	rla	r13		
    8904:	0d 5d       	rla	r13		
    8906:	0f 4d       	mov	r13,	r15	
    8908:	3f 50 34 12 	add	#4660,	r15	;#0x1234
    890c:	8f 4a 00 00 	mov	r10,	0(r15)	;0x0000(r15)
    8910:	8f 48 02 00 	mov	r8,	2(r15)	;0x0002(r15)
    8914:	8f 4e 04 00 	mov	r14,	4(r15)	;0x0004(r15)
    8918:	dd 43 3a 12 	mov.b	#1,	4666(r13);r3 As==01, 0x123a(r13)
    891c:	c2 93 0c 11 	tst.b	&0x110c	
    8920:	21 20       	jnz	$+68     	;abs 0x8964
    8922:	77 f0 40 00 	and.b	#64,	r7	;#0x0040
    8926:	59 43       	mov.b	#1,	r9	;r3 As==01
    8928:	77 90 40 00 	cmp.b	#64,	r7	;#0x0040
    892c:	01 24       	jz	$+4      	;abs 0x8930
    892e:	49 43       	clr.b	r9		
    8930:	0f 4a       	mov	r10,	r15	
    8932:	b0 12 52 9a 	call	#0x9a52	
    8936:	5f 92 e2 11 	cmp.b	&0x11e2,r15	
    893a:	06 2c       	jc	$+14     	;abs 0x8948
    893c:	4d 4f       	mov.b	r15,	r13	
    893e:	0d 5d       	rla	r13		
    8940:	0d 5d       	rla	r13		
    8942:	0d 5d       	rla	r13		
    8944:	cd 49 3b 12 	mov.b	r9,	4667(r13);0x123b(r13)
    8948:	c2 93 b3 17 	tst.b	&0x17b3	
    894c:	02 24       	jz	$+6      	;abs 0x8952
    894e:	49 93       	tst.b	r9		
    8950:	05 24       	jz	$+12     	;abs 0x895c
    8952:	1a 92 ae 17 	cmp	&0x17ae,r10	
    8956:	06 20       	jnz	$+14     	;abs 0x8964
    8958:	49 93       	tst.b	r9		
    895a:	04 24       	jz	$+10     	;abs 0x8964
    895c:	7f 40 1a 00 	mov.b	#26,	r15	;#0x001a
    8960:	b0 12 80 4d 	call	#0x4d80	
    8964:	5f 4b 0e 00 	mov.b	14(r11),r15	;0x000e(r11)
    8968:	30 40 24 8b 	br	#0x8b24	
    896c:	59 4b 0d 00 	mov.b	13(r11),r9	;0x000d(r11)
    8970:	59 53       	inc.b	r9		
    8972:	cb 49 0d 00 	mov.b	r9,	13(r11)	;0x000d(r11)
    8976:	77 50 f3 ff 	add.b	#-13,	r7	;#0xfff3
    897a:	77 90 1d 00 	cmp.b	#29,	r7	;#0x001d
    897e:	02 28       	jnc	$+6      	;abs 0x8984
    8980:	30 40 32 8b 	br	#0x8b32	
    8984:	0f 4b       	mov	r11,	r15	
    8986:	b0 12 2c 48 	call	#0x482c	
    898a:	5f 92 bc 11 	cmp.b	&0x11bc,r15	
    898e:	02 2c       	jc	$+6      	;abs 0x8994
    8990:	30 40 32 8b 	br	#0x8b32	
    8994:	5d 42 3e 11 	mov.b	&0x113e,r13	
    8998:	4d 93       	tst.b	r13		
    899a:	34 24       	jz	$+106    	;abs 0x8a04
    899c:	5a 42 42 11 	mov.b	&0x1142,r10	
    89a0:	5e 4b 10 00 	mov.b	16(r11),r14	;0x0010(r11)
    89a4:	8e 10       	swpb	r14		
    89a6:	5f 4b 11 00 	mov.b	17(r11),r15	;0x0011(r11)
    89aa:	0e df       	bis	r15,	r14	
    89ac:	47 4a       	mov.b	r10,	r7	
    89ae:	77 50 f3 ff 	add.b	#-13,	r7	;#0xfff3
    89b2:	7d 53       	add.b	#-1,	r13	;r3 As==11
    89b4:	4f 4d       	mov.b	r13,	r15	
    89b6:	4f 5a       	add.b	r10,	r15	
    89b8:	7f 90 0d 00 	cmp.b	#13,	r15	;#0x000d
    89bc:	02 28       	jnc	$+6      	;abs 0x89c2
    89be:	4f 47       	mov.b	r7,	r15	
    89c0:	4f 5d       	add.b	r13,	r15	
    89c2:	4f 4f       	mov.b	r15,	r15	
    89c4:	0f 5f       	rla	r15		
    89c6:	1f 4f 90 17 	mov	6032(r15),r15	;0x1790(r15)
    89ca:	2f 4f       	mov	@r15,	r15	
    89cc:	5c 4f 10 00 	mov.b	16(r15),r12	;0x0010(r15)
    89d0:	8c 10       	swpb	r12		
    89d2:	58 4f 11 00 	mov.b	17(r15),r8	;0x0011(r15)
    89d6:	0c d8       	bis	r8,	r12	
    89d8:	0c 9e       	cmp	r14,	r12	
    89da:	0f 20       	jnz	$+32     	;abs 0x89fa
    89dc:	df 9b 12 00 12 00 	cmp.b	18(r11),18(r15)	;0x0012(r11), 0x0012(r15)
    89e2:	0b 20       	jnz	$+24     	;abs 0x89fa
    89e4:	cf 99 0d 00 	cmp.b	r9,	13(r15)	;0x000d(r15)
    89e8:	08 20       	jnz	$+18     	;abs 0x89fa
    89ea:	1c 43       	mov	#1,	r12	;r3 As==01
    89ec:	df 9b 13 00 13 00 	cmp.b	19(r11),19(r15)	;0x0013(r11), 0x0013(r15)
    89f2:	01 24       	jz	$+4      	;abs 0x89f6
    89f4:	0c 43       	clr	r12		
    89f6:	0f 4c       	mov	r12,	r15	
    89f8:	01 3c       	jmp	$+4      	;abs 0x89fc
    89fa:	0f 43       	clr	r15		
    89fc:	4f 93       	tst.b	r15		
    89fe:	99 20       	jnz	$+308    	;abs 0x8b32
    8a00:	4d 93       	tst.b	r13		
    8a02:	d7 23       	jnz	$-80     	;abs 0x89b2
    8a04:	c2 93 c0 11 	tst.b	&0x11c0	
    8a08:	04 24       	jz	$+10     	;abs 0x8a12
    8a0a:	0f 4b       	mov	r11,	r15	
    8a0c:	b0 12 48 4b 	call	#0x4b48	
    8a10:	90 3c       	jmp	$+290    	;abs 0x8b32
    8a12:	5e 42 ff 12 	mov.b	&0x12ff,r14	
    8a16:	4e 93       	tst.b	r14		
    8a18:	8c 24       	jz	$+282    	;abs 0x8b32
    8a1a:	5d 42 fe 12 	mov.b	&0x12fe,r13	
    8a1e:	4d 93       	tst.b	r13		
    8a20:	88 24       	jz	$+274    	;abs 0x8b32
    8a22:	5c 42 23 18 	mov.b	&0x1823,r12	
    8a26:	4f 4c       	mov.b	r12,	r15	
    8a28:	0f 5f       	rla	r15		
    8a2a:	3f 50 3c 18 	add	#6204,	r15	;#0x183c
    8a2e:	2a 4f       	mov	@r15,	r10	
    8a30:	8f 43 00 00 	mov	#0,	0(r15)	;r3 As==00, 0x0000(r15)
    8a34:	7d 53       	add.b	#-1,	r13	;r3 As==11
    8a36:	c2 4d fe 12 	mov.b	r13,	&0x12fe	
    8a3a:	4f 4c       	mov.b	r12,	r15	
    8a3c:	5f 53       	inc.b	r15		
    8a3e:	c2 4f 23 18 	mov.b	r15,	&0x1823	
    8a42:	7f 90 0c 00 	cmp.b	#12,	r15	;#0x000c
    8a46:	02 20       	jnz	$+6      	;abs 0x8a4c
    8a48:	c2 43 23 18 	mov.b	#0,	&0x1823	;r3 As==00
    8a4c:	0a 93       	tst	r10		
    8a4e:	71 24       	jz	$+228    	;abs 0x8b32
    8a50:	5d 42 da 12 	mov.b	&0x12da,r13	
    8a54:	4f 4d       	mov.b	r13,	r15	
    8a56:	0f 5f       	rla	r15		
    8a58:	3f 50 da 14 	add	#5338,	r15	;#0x14da
    8a5c:	29 4f       	mov	@r15,	r9	
    8a5e:	8f 43 00 00 	mov	#0,	0(r15)	;r3 As==00, 0x0000(r15)
    8a62:	7e 53       	add.b	#-1,	r14	;r3 As==11
    8a64:	c2 4e ff 12 	mov.b	r14,	&0x12ff	
    8a68:	4f 4d       	mov.b	r13,	r15	
    8a6a:	5f 53       	inc.b	r15		
    8a6c:	c2 4f da 12 	mov.b	r15,	&0x12da	
    8a70:	7f 90 0c 00 	cmp.b	#12,	r15	;#0x000c
    8a74:	02 20       	jnz	$+6      	;abs 0x8a7a
    8a76:	c2 43 da 12 	mov.b	#0,	&0x12da	;r3 As==00
    8a7a:	09 93       	tst	r9		
    8a7c:	5a 24       	jz	$+182    	;abs 0x8b32
    8a7e:	3d 40 34 00 	mov	#52,	r13	;#0x0034
    8a82:	0e 43       	clr	r14		
    8a84:	0f 49       	mov	r9,	r15	
    8a86:	b0 12 a2 9f 	call	#0x9fa2	
    8a8a:	3d 40 0c 00 	mov	#12,	r13	;#0x000c
    8a8e:	0e 43       	clr	r14		
    8a90:	0f 4b       	mov	r11,	r15	
    8a92:	3f 50 28 00 	add	#40,	r15	;#0x0028
    8a96:	b0 12 a2 9f 	call	#0x9fa2	
    8a9a:	8a 4b 00 00 	mov	r11,	0(r10)	;0x0000(r10)
    8a9e:	fa 43 02 00 	mov.b	#-1,	2(r10)	;r3 As==11, 0x0002(r10)
    8aa2:	fa 40 1e 00 03 00 	mov.b	#30,	3(r10)	;#0x001e, 0x0003(r10)
    8aa8:	f2 90 0d 00 3e 11 	cmp.b	#13,	&0x113e	;#0x000d
    8aae:	24 2c       	jc	$+74     	;abs 0x8af8
    8ab0:	0f 4a       	mov	r10,	r15	
    8ab2:	b0 12 40 4d 	call	#0x4d40	
    8ab6:	4f 93       	tst.b	r15		
    8ab8:	1f 20       	jnz	$+64     	;abs 0x8af8
    8aba:	0f 41       	mov	r1,	r15	
    8abc:	b0 12 90 4c 	call	#0x4c90	
    8ac0:	4f 93       	tst.b	r15		
    8ac2:	11 20       	jnz	$+36     	;abs 0x8ae6
    8ac4:	5e 4b 0e 00 	mov.b	14(r11),r14	;0x000e(r11)
    8ac8:	8e 10       	swpb	r14		
    8aca:	5f 4b 0f 00 	mov.b	15(r11),r15	;0x000f(r11)
    8ace:	0e df       	bis	r15,	r14	
    8ad0:	81 9e 00 00 	cmp	r14,	0(r1)	;0x0000(r1)
    8ad4:	08 28       	jnc	$+18     	;abs 0x8ae6
    8ad6:	b0 12 68 5d 	call	#0x5d68	
    8ada:	3e 40 1c 00 	mov	#28,	r14	;#0x001c
    8ade:	3f 40 1c 00 	mov	#28,	r15	;#0x001c
    8ae2:	b0 12 20 5c 	call	#0x5c20	
    8ae6:	e2 b3 2c 14 	bit.b	#2,	&0x142c	;r3 As==10
    8aea:	0e 43       	clr	r14		
    8aec:	0e 6e       	rlc	r14		
    8aee:	4e 93       	tst.b	r14		
    8af0:	12 20       	jnz	$+38     	;abs 0x8b16
    8af2:	b0 12 00 4e 	call	#0x4e00	
    8af6:	0f 3c       	jmp	$+32     	;abs 0x8b16
    8af8:	f2 90 0c 00 ff 12 	cmp.b	#12,	&0x12ff	;#0x000c
    8afe:	03 2c       	jc	$+8      	;abs 0x8b06
    8b00:	0f 49       	mov	r9,	r15	
    8b02:	b0 12 f4 4c 	call	#0x4cf4	
    8b06:	f2 90 0c 00 fe 12 	cmp.b	#12,	&0x12fe	;#0x000c
    8b0c:	12 2c       	jc	$+38     	;abs 0x8b32
    8b0e:	0f 4a       	mov	r10,	r15	
    8b10:	b0 12 1a 4d 	call	#0x4d1a	
    8b14:	0e 3c       	jmp	$+30     	;abs 0x8b32
    8b16:	0b 49       	mov	r9,	r11	
    8b18:	0c 3c       	jmp	$+26     	;abs 0x8b32
    8b1a:	7f 90 71 00 	cmp.b	#113,	r15	;#0x0071
    8b1e:	09 20       	jnz	$+20     	;abs 0x8b32
    8b20:	5f 4b 0c 00 	mov.b	12(r11),r15	;0x000c(r11)
    8b24:	7f f0 80 ff 	and.b	#-128,	r15	;#0xff80
    8b28:	7f 90 80 ff 	cmp.b	#-128,	r15	;#0xff80
    8b2c:	02 20       	jnz	$+6      	;abs 0x8b32
    8b2e:	b0 12 68 5d 	call	#0x5d68	
    8b32:	82 4b 74 11 	mov	r11,	&0x1174	
    8b36:	b0 12 66 4d 	call	#0x4d66	
    8b3a:	c2 43 8e 12 	mov.b	#0,	&0x128e	;r3 As==00
    8b3e:	b0 12 78 4d 	call	#0x4d78	
    8b42:	b0 12 d8 76 	call	#0x76d8	
    8b46:	30 40 80 95 	br	#0x9580	
    8b4a:	c2 93 28 12 	tst.b	&0x1228	
    8b4e:	28 20       	jnz	$+82     	;abs 0x8ba0
    8b50:	1a 42 b6 17 	mov	&0x17b6,r10	
    8b54:	1b 42 b8 17 	mov	&0x17b8,r11	
    8b58:	b0 12 66 4d 	call	#0x4d66	
    8b5c:	18 42 2e 12 	mov	&0x122e,r8	
    8b60:	19 42 30 12 	mov	&0x1230,r9	
    8b64:	18 52 76 11 	add	&0x1176,r8	
    8b68:	19 62 78 11 	addc	&0x1178,r9	
    8b6c:	b0 12 78 4d 	call	#0x4d78	
    8b70:	82 4a b6 17 	mov	r10,	&0x17b6	
    8b74:	82 4b b8 17 	mov	r11,	&0x17b8	
    8b78:	c2 43 28 12 	mov.b	#0,	&0x1228	;r3 As==00
    8b7c:	b0 12 66 4d 	call	#0x4d66	
    8b80:	82 48 76 11 	mov	r8,	&0x1176	
    8b84:	82 49 78 11 	mov	r9,	&0x1178	
    8b88:	82 4a 2e 12 	mov	r10,	&0x122e	
    8b8c:	82 4b 30 12 	mov	r11,	&0x1230	
    8b90:	81 4f 0a 00 	mov	r15,	10(r1)	;0x000a(r1)
    8b94:	b0 12 dc 50 	call	#0x50dc	
    8b98:	1f 41 0a 00 	mov	10(r1),	r15	;0x000a(r1)
    8b9c:	b0 12 78 4d 	call	#0x4d78	
    8ba0:	b0 12 0a 4e 	call	#0x4e0a	
    8ba4:	b0 12 ec 6d 	call	#0x6dec	
    8ba8:	30 40 80 95 	br	#0x9580	
    8bac:	b0 12 0a 4e 	call	#0x4e0a	
    8bb0:	08 4e       	mov	r14,	r8	
    8bb2:	09 4f       	mov	r15,	r9	
    8bb4:	b2 f0 ef ff 86 01 	and	#-17,	&0x0186	;#0xffef
    8bba:	46 43       	clr.b	r6		
    8bbc:	3a 43       	mov	#-1,	r10	;r3 As==11
    8bbe:	3b 40 ff 7f 	mov	#32767,	r11	;#0x7fff
    8bc2:	07 43       	clr	r7		
    8bc4:	0e 47       	mov	r7,	r14	
    8bc6:	0e 5e       	rla	r14		
    8bc8:	0f 4e       	mov	r14,	r15	
    8bca:	0f 5f       	rla	r15		
    8bcc:	0f 5f       	rla	r15		
    8bce:	0f 5e       	add	r14,	r15	
    8bd0:	3f 50 d4 13 	add	#5076,	r15	;#0x13d4
    8bd4:	ef b3 08 00 	bit.b	#2,	8(r15)	;r3 As==10, 0x0008(r15)
    8bd8:	13 24       	jz	$+40     	;abs 0x8c00
    8bda:	0c 48       	mov	r8,	r12	
    8bdc:	0d 49       	mov	r9,	r13	
    8bde:	2c 8f       	sub	@r15,	r12	
    8be0:	1d 7f 02 00 	subc	2(r15),	r13	;0x0002(r15)
    8be4:	1e 4f 04 00 	mov	4(r15),	r14	;0x0004(r15)
    8be8:	1f 4f 06 00 	mov	6(r15),	r15	;0x0006(r15)
    8bec:	0e 8c       	sub	r12,	r14	
    8bee:	0f 7d       	subc	r13,	r15	
    8bf0:	0f 9b       	cmp	r11,	r15	
    8bf2:	03 38       	jl	$+8      	;abs 0x8bfa
    8bf4:	05 20       	jnz	$+12     	;abs 0x8c00
    8bf6:	0e 9a       	cmp	r10,	r14	
    8bf8:	03 2c       	jc	$+8      	;abs 0x8c00
    8bfa:	0a 4e       	mov	r14,	r10	
    8bfc:	0b 4f       	mov	r15,	r11	
    8bfe:	56 43       	mov.b	#1,	r6	;r3 As==01
    8c00:	17 53       	inc	r7		
    8c02:	37 90 0f 00 	cmp	#15,	r7	;#0x000f
    8c06:	de 23       	jnz	$-66     	;abs 0x8bc4
    8c08:	46 93       	tst.b	r6		
    8c0a:	02 20       	jnz	$+6      	;abs 0x8c10
    8c0c:	30 40 80 95 	br	#0x9580	
    8c10:	0b 93       	tst	r11		
    8c12:	04 38       	jl	$+10     	;abs 0x8c1c
    8c14:	1b 93       	cmp	#1,	r11	;r3 As==01
    8c16:	08 34       	jge	$+18     	;abs 0x8c28
    8c18:	1a 93       	cmp	#1,	r10	;r3 As==01
    8c1a:	06 2c       	jc	$+14     	;abs 0x8c28
    8c1c:	0e 48       	mov	r8,	r14	
    8c1e:	0f 49       	mov	r9,	r15	
    8c20:	b0 12 ec 6d 	call	#0x6dec	
    8c24:	30 40 80 95 	br	#0x9580	
    8c28:	82 4a b6 17 	mov	r10,	&0x17b6	
    8c2c:	82 4b b8 17 	mov	r11,	&0x17b8	
    8c30:	d2 43 28 12 	mov.b	#1,	&0x1228	;r3 As==01
    8c34:	b0 12 66 4d 	call	#0x4d66	
    8c38:	82 48 76 11 	mov	r8,	&0x1176	
    8c3c:	82 49 78 11 	mov	r9,	&0x1178	
    8c40:	82 4a 2e 12 	mov	r10,	&0x122e	
    8c44:	82 4b 30 12 	mov	r11,	&0x1230	
    8c48:	81 4f 0a 00 	mov	r15,	10(r1)	;0x000a(r1)
    8c4c:	b0 12 dc 50 	call	#0x50dc	
    8c50:	1f 41 0a 00 	mov	10(r1),	r15	;0x000a(r1)
    8c54:	b0 12 78 4d 	call	#0x4d78	
    8c58:	30 40 80 95 	br	#0x9580	
    8c5c:	5f 42 d6 12 	mov.b	&0x12d6,r15	
    8c60:	5f 92 12 11 	cmp.b	&0x1112,r15	
    8c64:	02 20       	jnz	$+6      	;abs 0x8c6a
    8c66:	30 40 80 95 	br	#0x9580	
    8c6a:	c2 4f 12 11 	mov.b	r15,	&0x1112	
    8c6e:	4f 93       	tst.b	r15		
    8c70:	13 20       	jnz	$+40     	;abs 0x8c98
    8c72:	5e 42 fc 12 	mov.b	&0x12fc,r14	
    8c76:	1f 42 4a 11 	mov	&0x114a,r15	
    8c7a:	b0 12 46 63 	call	#0x6346	
    8c7e:	4f 93       	tst.b	r15		
    8c80:	02 20       	jnz	$+6      	;abs 0x8c86
    8c82:	30 40 80 95 	br	#0x9580	
    8c86:	f2 43 12 11 	mov.b	#-1,	&0x1112	;r3 As==11
    8c8a:	4e 4f       	mov.b	r15,	r14	
    8c8c:	1f 42 4a 11 	mov	&0x114a,r15	
    8c90:	b0 12 2c 65 	call	#0x652c	
    8c94:	30 40 80 95 	br	#0x9580	
    8c98:	f2 43 12 11 	mov.b	#-1,	&0x1112	;r3 As==11
    8c9c:	30 40 80 95 	br	#0x9580	
    8ca0:	1b 42 f6 14 	mov	&0x14f6,r11	
    8ca4:	b0 12 66 4d 	call	#0x4d66	
    8ca8:	4a 4f       	mov.b	r15,	r10	
    8caa:	6f 43       	mov.b	#2,	r15	;r3 As==10
    8cac:	b0 12 90 58 	call	#0x5890	
    8cb0:	4f 93       	tst.b	r15		
    8cb2:	09 20       	jnz	$+20     	;abs 0x8cc6
    8cb4:	4f 4a       	mov.b	r10,	r15	
    8cb6:	b0 12 78 4d 	call	#0x4d78	
    8cba:	7f 40 10 00 	mov.b	#16,	r15	;#0x0010
    8cbe:	b0 12 80 4d 	call	#0x4d80	
    8cc2:	30 40 80 95 	br	#0x9580	
    8cc6:	6e 42       	mov.b	#4,	r14	;r2 As==10
    8cc8:	5f 43       	mov.b	#1,	r15	;r3 As==01
    8cca:	b0 12 96 66 	call	#0x6696	
    8cce:	82 4b 00 13 	mov	r11,	&0x1300	
    8cd2:	4f 4a       	mov.b	r10,	r15	
    8cd4:	b0 12 78 4d 	call	#0x4d78	
    8cd8:	5f 4b 02 00 	mov.b	2(r11),	r15	;0x0002(r11)
    8cdc:	8f 10       	swpb	r15		
    8cde:	5e 4b 01 00 	mov.b	1(r11),	r14	;0x0001(r11)
    8ce2:	0f de       	bis	r14,	r15	
    8ce4:	3f f0 20 cc 	and	#-13280,r15	;#0xcc20
    8ce8:	4e 4f       	mov.b	r15,	r14	
    8cea:	3e d0 41 00 	bis	#65,	r14	;#0x0041
    8cee:	8f 10       	swpb	r15		
    8cf0:	4f 4f       	mov.b	r15,	r15	
    8cf2:	8f 10       	swpb	r15		
    8cf4:	0e df       	bis	r15,	r14	
    8cf6:	cb 4e 01 00 	mov.b	r14,	1(r11)	;0x0001(r11)
    8cfa:	8e 10       	swpb	r14		
    8cfc:	cb 4e 02 00 	mov.b	r14,	2(r11)	;0x0002(r11)
    8d00:	cb 43 2c 00 	mov.b	#0,	44(r11)	;r3 As==00, 0x002c(r11)
    8d04:	cb 43 28 00 	mov.b	#0,	40(r11)	;r3 As==00, 0x0028(r11)
    8d08:	cb 43 29 00 	mov.b	#0,	41(r11)	;r3 As==00, 0x0029(r11)
    8d0c:	cb 43 31 00 	mov.b	#0,	49(r11)	;r3 As==00, 0x0031(r11)
    8d10:	cb 43 30 00 	mov.b	#0,	48(r11)	;r3 As==00, 0x0030(r11)
    8d14:	cb 43 2f 00 	mov.b	#0,	47(r11)	;r3 As==00, 0x002f(r11)
    8d18:	fb 40 80 ff 2e 00 	mov.b	#-128,	46(r11)	;#0xff80, 0x002e(r11)
    8d1e:	d2 43 fe 14 	mov.b	#1,	&0x14fe	;r3 As==01
    8d22:	1b 42 00 13 	mov	&0x1300,r11	
    8d26:	b0 12 66 4d 	call	#0x4d66	
    8d2a:	1e 42 54 11 	mov	&0x1154,r14	
    8d2e:	3e 92       	cmp	#8,	r14	;r2 As==11
    8d30:	04 20       	jnz	$+10     	;abs 0x8d3a
    8d32:	b0 12 78 4d 	call	#0x4d78	
    8d36:	30 40 80 95 	br	#0x9580	
    8d3a:	1e 93       	cmp	#1,	r14	;r3 As==01
    8d3c:	04 24       	jz	$+10     	;abs 0x8d46
    8d3e:	b0 12 78 4d 	call	#0x4d78	
    8d42:	30 40 80 95 	br	#0x9580	
    8d46:	a2 43 54 11 	mov	#2,	&0x1154	;r3 As==10
    8d4a:	d2 43 3a 18 	mov.b	#1,	&0x183a	;r3 As==01
    8d4e:	82 4b d0 12 	mov	r11,	&0x12d0	
    8d52:	c2 43 ba 11 	mov.b	#0,	&0x11ba	;r3 As==00
    8d56:	b0 12 78 4d 	call	#0x4d78	
    8d5a:	b0 12 52 7a 	call	#0x7a52	
    8d5e:	4f 93       	tst.b	r15		
    8d60:	02 24       	jz	$+6      	;abs 0x8d66
    8d62:	30 40 80 95 	br	#0x9580	
    8d66:	b0 12 ae 9c 	call	#0x9cae	
    8d6a:	30 40 80 95 	br	#0x9580	
    8d6e:	b0 12 66 4d 	call	#0x4d66	
    8d72:	1e 42 54 11 	mov	&0x1154,r14	
    8d76:	3e 92       	cmp	#8,	r14	;r2 As==11
    8d78:	02 24       	jz	$+6      	;abs 0x8d7e
    8d7a:	1e 93       	cmp	#1,	r14	;r3 As==01
    8d7c:	08 24       	jz	$+18     	;abs 0x8d8e
    8d7e:	b0 12 78 4d 	call	#0x4d78	
    8d82:	7f 40 11 00 	mov.b	#17,	r15	;#0x0011
    8d86:	b0 12 80 4d 	call	#0x4d80	
    8d8a:	30 40 80 95 	br	#0x9580	
    8d8e:	d2 43 3a 18 	mov.b	#1,	&0x183a	;r3 As==01
    8d92:	b2 40 03 00 54 11 	mov	#3,	&0x1154	;#0x0003
    8d98:	c2 43 ba 11 	mov.b	#0,	&0x11ba	;r3 As==00
    8d9c:	b0 12 78 4d 	call	#0x4d78	
    8da0:	c2 93 3a 18 	tst.b	&0x183a	
    8da4:	0b 24       	jz	$+24     	;abs 0x8dbc
    8da6:	1f 42 d0 12 	mov	&0x12d0,r15	
    8daa:	b0 12 dc 5b 	call	#0x5bdc	
    8dae:	1e 42 d2 11 	mov	&0x11d2,r14	
    8db2:	0f 43       	clr	r15		
    8db4:	b0 12 a6 5e 	call	#0x5ea6	
    8db8:	30 40 80 95 	br	#0x9580	
    8dbc:	b0 12 52 7a 	call	#0x7a52	
    8dc0:	4f 93       	tst.b	r15		
    8dc2:	02 24       	jz	$+6      	;abs 0x8dc8
    8dc4:	30 40 80 95 	br	#0x9580	
    8dc8:	b0 12 4e 5f 	call	#0x5f4e	
    8dcc:	30 40 80 95 	br	#0x9580	
    8dd0:	b0 12 32 71 	call	#0x7132	
    8dd4:	4f 93       	tst.b	r15		
    8dd6:	02 20       	jnz	$+6      	;abs 0x8ddc
    8dd8:	30 40 80 95 	br	#0x9580	
    8ddc:	7f 40 12 00 	mov.b	#18,	r15	;#0x0012
    8de0:	b0 12 80 4d 	call	#0x4d80	
    8de4:	30 40 80 95 	br	#0x9580	
    8de8:	b0 12 82 66 	call	#0x6682	
    8dec:	4f 93       	tst.b	r15		
    8dee:	02 24       	jz	$+6      	;abs 0x8df4
    8df0:	30 40 80 95 	br	#0x9580	
    8df4:	b0 12 50 69 	call	#0x6950	
    8df8:	4f 93       	tst.b	r15		
    8dfa:	02 20       	jnz	$+6      	;abs 0x8e00
    8dfc:	30 40 80 95 	br	#0x9580	
    8e00:	7f 40 13 00 	mov.b	#19,	r15	;#0x0013
    8e04:	b0 12 80 4d 	call	#0x4d80	
    8e08:	30 40 80 95 	br	#0x9580	
    8e0c:	b0 12 50 69 	call	#0x6950	
    8e10:	4f 93       	tst.b	r15		
    8e12:	02 20       	jnz	$+6      	;abs 0x8e18
    8e14:	30 40 80 95 	br	#0x9580	
    8e18:	b0 12 ca 67 	call	#0x67ca	
    8e1c:	1d 42 4e 11 	mov	&0x114e,r13	
    8e20:	0e 43       	clr	r14		
    8e22:	5f 43       	mov.b	#1,	r15	;r3 As==01
    8e24:	b0 12 a6 4f 	call	#0x4fa6	
    8e28:	30 40 80 95 	br	#0x9580	
    8e2c:	b0 12 32 71 	call	#0x7132	
    8e30:	4f 93       	tst.b	r15		
    8e32:	02 20       	jnz	$+6      	;abs 0x8e38
    8e34:	30 40 80 95 	br	#0x9580	
    8e38:	7f 90 09 00 	cmp.b	#9,	r15	;#0x0009
    8e3c:	02 20       	jnz	$+6      	;abs 0x8e42
    8e3e:	30 40 80 95 	br	#0x9580	
    8e42:	7f 40 15 00 	mov.b	#21,	r15	;#0x0015
    8e46:	b0 12 80 4d 	call	#0x4d80	
    8e4a:	30 40 80 95 	br	#0x9580	
    8e4e:	b0 12 72 58 	call	#0x5872	
    8e52:	4f 93       	tst.b	r15		
    8e54:	02 20       	jnz	$+6      	;abs 0x8e5a
    8e56:	30 40 80 95 	br	#0x9580	
    8e5a:	1f 42 32 18 	mov	&0x1832,r15	
    8e5e:	1f 53       	inc	r15		
    8e60:	82 4f 32 18 	mov	r15,	&0x1832	
    8e64:	1f 93       	cmp	#1,	r15	;r3 As==01
    8e66:	06 20       	jnz	$+14     	;abs 0x8e74
    8e68:	7f 40 15 00 	mov.b	#21,	r15	;#0x0015
    8e6c:	b0 12 80 4d 	call	#0x4d80	
    8e70:	30 40 80 95 	br	#0x9580	
    8e74:	b0 12 66 4d 	call	#0x4d66	
    8e78:	4b 4f       	mov.b	r15,	r11	
    8e7a:	4a 43       	clr.b	r10		
    8e7c:	1a 3c       	jmp	$+54     	;abs 0x8eb2
    8e7e:	c2 93 8e 12 	tst.b	&0x128e	
    8e82:	07 24       	jz	$+16     	;abs 0x8e92
    8e84:	b0 12 66 50 	call	#0x5066	
    8e88:	4f 4b       	mov.b	r11,	r15	
    8e8a:	b0 12 78 4d 	call	#0x4d78	
    8e8e:	30 40 80 95 	br	#0x9580	
    8e92:	f2 b0 10 00 20 00 	bit.b	#16,	&0x0020	;#0x0010
    8e98:	0a 20       	jnz	$+22     	;abs 0x8eae
    8e9a:	5a 53       	inc.b	r10		
    8e9c:	6a 92       	cmp.b	#4,	r10	;r2 As==10
    8e9e:	07 28       	jnc	$+16     	;abs 0x8eae
    8ea0:	b0 12 66 50 	call	#0x5066	
    8ea4:	4f 4b       	mov.b	r11,	r15	
    8ea6:	b0 12 78 4d 	call	#0x4d78	
    8eaa:	30 40 80 95 	br	#0x9580	
    8eae:	92 53 32 18 	inc	&0x1832	
    8eb2:	b2 90 90 01 32 18 	cmp	#400,	&0x1832	;#0x0190
    8eb8:	08 2c       	jc	$+18     	;abs 0x8eca
    8eba:	b0 12 66 4d 	call	#0x4d66	
    8ebe:	59 42 fd 14 	mov.b	&0x14fd,r9	
    8ec2:	b0 12 78 4d 	call	#0x4d78	
    8ec6:	49 93       	tst.b	r9		
    8ec8:	da 27       	jz	$-74     	;abs 0x8e7e
    8eca:	4f 4b       	mov.b	r11,	r15	
    8ecc:	b0 12 78 4d 	call	#0x4d78	
    8ed0:	b0 12 66 4d 	call	#0x4d66	
    8ed4:	5b 42 fd 14 	mov.b	&0x14fd,r11	
    8ed8:	b0 12 78 4d 	call	#0x4d78	
    8edc:	4b 93       	tst.b	r11		
    8ede:	02 24       	jz	$+6      	;abs 0x8ee4
    8ee0:	30 40 80 95 	br	#0x9580	
    8ee4:	7f 40 14 00 	mov.b	#20,	r15	;#0x0014
    8ee8:	b0 12 80 4d 	call	#0x4d80	
    8eec:	30 40 80 95 	br	#0x9580	
    8ef0:	b0 12 c4 50 	call	#0x50c4	
    8ef4:	30 40 80 95 	br	#0x9580	
    8ef8:	b0 12 66 4d 	call	#0x4d66	
    8efc:	5e 42 45 13 	mov.b	&0x1345,r14	
    8f00:	1e b3       	bit	#1,	r14	;r3 As==01
    8f02:	06 24       	jz	$+14     	;abs 0x8f10
    8f04:	7e f0 fe ff 	and.b	#-2,	r14	;#0xfffe
    8f08:	c2 4e 45 13 	mov.b	r14,	&0x1345	
    8f0c:	5b 43       	mov.b	#1,	r11	;r3 As==01
    8f0e:	01 3c       	jmp	$+4      	;abs 0x8f12
    8f10:	4b 43       	clr.b	r11		
    8f12:	b0 12 78 4d 	call	#0x4d78	
    8f16:	4b 93       	tst.b	r11		
    8f18:	02 20       	jnz	$+6      	;abs 0x8f1e
    8f1a:	30 40 80 95 	br	#0x9580	
    8f1e:	1f 43       	mov	#1,	r15	;r3 As==01
    8f20:	b0 12 d6 65 	call	#0x65d6	
    8f24:	7f 40 18 00 	mov.b	#24,	r15	;#0x0018
    8f28:	b0 12 80 4d 	call	#0x4d80	
    8f2c:	30 40 80 95 	br	#0x9580	
    8f30:	f2 b0 10 00 44 11 	bit.b	#16,	&0x1144	;#0x0010
    8f36:	02 24       	jz	$+6      	;abs 0x8f3c
    8f38:	30 40 80 95 	br	#0x9580	
    8f3c:	c2 93 3e 11 	tst.b	&0x113e	
    8f40:	02 20       	jnz	$+6      	;abs 0x8f46
    8f42:	30 40 80 95 	br	#0x9580	
    8f46:	c2 93 c0 11 	tst.b	&0x11c0	
    8f4a:	03 20       	jnz	$+8      	;abs 0x8f52
    8f4c:	b2 93 ae 17 	cmp	#-1,	&0x17ae	;r3 As==11
    8f50:	05 24       	jz	$+12     	;abs 0x8f5c
    8f52:	0f 41       	mov	r1,	r15	
    8f54:	b0 12 90 4c 	call	#0x4c90	
    8f58:	4f 93       	tst.b	r15		
    8f5a:	08 24       	jz	$+18     	;abs 0x8f6c
    8f5c:	3d 40 10 27 	mov	#10000,	r13	;#0x2710
    8f60:	0e 43       	clr	r14		
    8f62:	7f 42       	mov.b	#8,	r15	;r2 As==11
    8f64:	b0 12 a6 4f 	call	#0x4fa6	
    8f68:	30 40 80 95 	br	#0x9580	
    8f6c:	5f 42 42 11 	mov.b	&0x1142,r15	
    8f70:	0f 5f       	rla	r15		
    8f72:	1b 4f 90 17 	mov	6032(r15),r11	;0x1790(r15)
    8f76:	2a 4b       	mov	@r11,	r10	
    8f78:	68 4a       	mov.b	@r10,	r8	
    8f7a:	19 42 ae 17 	mov	&0x17ae,r9	
    8f7e:	0f 4a       	mov	r10,	r15	
    8f80:	b0 12 2c 48 	call	#0x482c	
    8f84:	5f 92 bc 11 	cmp.b	&0x11bc,r15	
    8f88:	14 2c       	jc	$+42     	;abs 0x8fb2
    8f8a:	b0 12 c8 4c 	call	#0x4cc8	
    8f8e:	2f 4b       	mov	@r11,	r15	
    8f90:	f2 90 0c 00 ff 12 	cmp.b	#12,	&0x12ff	;#0x000c
    8f96:	02 2c       	jc	$+6      	;abs 0x8f9c
    8f98:	b0 12 f4 4c 	call	#0x4cf4	
    8f9c:	f2 90 0c 00 fe 12 	cmp.b	#12,	&0x12fe	;#0x000c
    8fa2:	03 2c       	jc	$+8      	;abs 0x8faa
    8fa4:	0f 4b       	mov	r11,	r15	
    8fa6:	b0 12 1a 4d 	call	#0x4d1a	
    8faa:	b0 12 00 4e 	call	#0x4e00	
    8fae:	30 40 80 95 	br	#0x9580	
    8fb2:	c2 93 c0 11 	tst.b	&0x11c0	
    8fb6:	0d 24       	jz	$+28     	;abs 0x8fd2
    8fb8:	3d 40 34 00 	mov	#52,	r13	;#0x0034
    8fbc:	0e 4a       	mov	r10,	r14	
    8fbe:	1f 42 f0 12 	mov	&0x12f0,r15	
    8fc2:	b0 12 a8 9e 	call	#0x9ea8	
    8fc6:	4e 43       	clr.b	r14		
    8fc8:	2f 4b       	mov	@r11,	r15	
    8fca:	b0 12 f2 61 	call	#0x61f2	
    8fce:	30 40 80 95 	br	#0x9580	
    8fd2:	2f 41       	mov	@r1,	r15	
    8fd4:	ca 4f 0f 00 	mov.b	r15,	15(r10)	;0x000f(r10)
    8fd8:	8f 10       	swpb	r15		
    8fda:	ca 4f 0e 00 	mov.b	r15,	14(r10)	;0x000e(r10)
    8fde:	2f 4b       	mov	@r11,	r15	
    8fe0:	ff f0 3f 00 0c 00 	and.b	#63,	12(r15)	;#0x003f, 0x000c(r15)
    8fe6:	2f 4b       	mov	@r11,	r15	
    8fe8:	5e 4f 01 00 	mov.b	1(r15),	r14	;0x0001(r15)
    8fec:	3e d0 20 00 	bis	#32,	r14	;#0x0020
    8ff0:	5c 4f 02 00 	mov.b	2(r15),	r12	;0x0002(r15)
    8ff4:	8c 10       	swpb	r12		
    8ff6:	0e dc       	bis	r12,	r14	
    8ff8:	cf 4e 01 00 	mov.b	r14,	1(r15)	;0x0001(r15)
    8ffc:	8e 10       	swpb	r14		
    8ffe:	cf 4e 02 00 	mov.b	r14,	2(r15)	;0x0002(r15)
    9002:	5f 42 44 11 	mov.b	&0x1144,r15	
    9006:	7f d2       	bis.b	#8,	r15	;r2 As==11
    9008:	c2 4f 44 11 	mov.b	r15,	&0x1144	
    900c:	5f f3       	and.b	#1,	r15	;r3 As==01
    900e:	07 24       	jz	$+16     	;abs 0x901e
    9010:	2f 4b       	mov	@r11,	r15	
    9012:	ff d0 40 00 0c 00 	bis.b	#64,	12(r15)	;#0x0040, 0x000c(r15)
    9018:	5f 43       	mov.b	#1,	r15	;r3 As==01
    901a:	b0 12 98 46 	call	#0x4698	
    901e:	2e 4b       	mov	@r11,	r14	
    9020:	1f 42 4c 11 	mov	&0x114c,r15	
    9024:	ce 4f 33 00 	mov.b	r15,	51(r14)	;0x0033(r14)
    9028:	8f 10       	swpb	r15		
    902a:	ce 4f 32 00 	mov.b	r15,	50(r14)	;0x0032(r14)
    902e:	ce 49 06 00 	mov.b	r9,	6(r14)	;0x0006(r14)
    9032:	89 10       	swpb	r9		
    9034:	ce 49 07 00 	mov.b	r9,	7(r14)	;0x0007(r14)
    9038:	fe 40 71 00 0b 00 	mov.b	#113,	11(r14)	;#0x0071, 0x000b(r14)
    903e:	4d 48       	mov.b	r8,	r13	
    9040:	7d 50 f3 ff 	add.b	#-13,	r13	;#0xfff3
    9044:	6f 43       	mov.b	#2,	r15	;r3 As==10
    9046:	b0 12 64 65 	call	#0x6564	
    904a:	4f 93       	tst.b	r15		
    904c:	05 20       	jnz	$+12     	;abs 0x9058
    904e:	f2 d0 10 00 44 11 	bis.b	#16,	&0x1144	;#0x0010
    9054:	30 40 80 95 	br	#0x9580	
    9058:	6f 93       	cmp.b	#2,	r15	;r3 As==10
    905a:	02 24       	jz	$+6      	;abs 0x9060
    905c:	30 40 80 95 	br	#0x9580	
    9060:	2f 4b       	mov	@r11,	r15	
    9062:	ff 40 29 00 00 00 	mov.b	#41,	0(r15)	;#0x0029, 0x0000(r15)
    9068:	b0 12 00 4e 	call	#0x4e00	
    906c:	30 40 80 95 	br	#0x9580	
    9070:	c2 93 c0 11 	tst.b	&0x11c0	
    9074:	02 24       	jz	$+6      	;abs 0x907a
    9076:	30 40 80 95 	br	#0x9580	
    907a:	39 43       	mov	#-1,	r9	;r3 As==11
    907c:	3a 43       	mov	#-1,	r10	;r3 As==11
    907e:	08 43       	clr	r8		
    9080:	47 43       	clr.b	r7		
    9082:	2b 3c       	jmp	$+88     	;abs 0x90da
    9084:	4f 47       	mov.b	r7,	r15	
    9086:	0f 5f       	rla	r15		
    9088:	0f 5f       	rla	r15		
    908a:	0f 5f       	rla	r15		
    908c:	0b 4f       	mov	r15,	r11	
    908e:	3b 50 34 12 	add	#4660,	r11	;#0x1234
    9092:	1f 4b 02 00 	mov	2(r11),	r15	;0x0002(r11)
    9096:	3f 93       	cmp	#-1,	r15	;r3 As==11
    9098:	1f 24       	jz	$+64     	;abs 0x90d8
    909a:	1f 92 f2 14 	cmp	&0x14f2,r15	
    909e:	1c 24       	jz	$+58     	;abs 0x90d8
    90a0:	26 4b       	mov	@r11,	r6	
    90a2:	0f 46       	mov	r6,	r15	
    90a4:	b0 12 b2 47 	call	#0x47b2	
    90a8:	1d 4b 04 00 	mov	4(r11),	r13	;0x0004(r11)
    90ac:	0e 4f       	mov	r15,	r14	
    90ae:	0e 5d       	add	r13,	r14	
    90b0:	16 92 ae 17 	cmp	&0x17ae,r6	
    90b4:	07 20       	jnz	$+16     	;abs 0x90c4
    90b6:	82 4d b0 17 	mov	r13,	&0x17b0	
    90ba:	d2 4b 07 00 b3 17 	mov.b	7(r11),	&0x17b3	;0x0007(r11)
    90c0:	09 4e       	mov	r14,	r9	
    90c2:	0a 3c       	jmp	$+22     	;abs 0x90d8
    90c4:	cb 93 07 00 	tst.b	7(r11)		;0x0007(r11)
    90c8:	07 20       	jnz	$+16     	;abs 0x90d8
    90ca:	3f 90 32 00 	cmp	#50,	r15	;#0x0032
    90ce:	04 2c       	jc	$+10     	;abs 0x90d8
    90d0:	0e 9a       	cmp	r10,	r14	
    90d2:	02 2c       	jc	$+6      	;abs 0x90d8
    90d4:	0a 4e       	mov	r14,	r10	
    90d6:	08 4b       	mov	r11,	r8	
    90d8:	57 53       	inc.b	r7		
    90da:	57 92 e2 11 	cmp.b	&0x11e2,r7	
    90de:	d2 2b       	jnc	$-90     	;abs 0x9084
    90e0:	3a 93       	cmp	#-1,	r10	;r3 As==11
    90e2:	54 24       	jz	$+170    	;abs 0x918c
    90e4:	39 93       	cmp	#-1,	r9	;r3 As==11
    90e6:	0e 24       	jz	$+30     	;abs 0x9104
    90e8:	c2 93 b3 17 	tst.b	&0x17b3	
    90ec:	06 24       	jz	$+14     	;abs 0x90fa
    90ee:	1f 42 b0 17 	mov	&0x17b0,r15	
    90f2:	3f 50 0a 00 	add	#10,	r15	;#0x000a
    90f6:	0a 9f       	cmp	r15,	r10	
    90f8:	05 28       	jnc	$+12     	;abs 0x9104
    90fa:	0f 4a       	mov	r10,	r15	
    90fc:	3f 50 0f 00 	add	#15,	r15	;#0x000f
    9100:	0f 99       	cmp	r9,	r15	
    9102:	44 2c       	jc	$+138    	;abs 0x918c
    9104:	92 53 14 18 	inc	&0x1814	
    9108:	82 63 16 18 	adc	&0x1816	
    910c:	1f 42 ae 17 	mov	&0x17ae,r15	
    9110:	b0 12 8e 47 	call	#0x478e	
    9114:	7f 93       	cmp.b	#-1,	r15	;r3 As==11
    9116:	0a 24       	jz	$+22     	;abs 0x912c
    9118:	4f 4f       	mov.b	r15,	r15	
    911a:	0f 5f       	rla	r15		
    911c:	0e 4f       	mov	r15,	r14	
    911e:	0e 5e       	rla	r14		
    9120:	0e 5e       	rla	r14		
    9122:	0e 5e       	rla	r14		
    9124:	0e 8f       	sub	r15,	r14	
    9126:	fe f0 f7 ff 4b 13 	and.b	#-9,	4939(r14);#0xfff7, 0x134b(r14)
    912c:	2b 48       	mov	@r8,	r11	
    912e:	0f 4b       	mov	r11,	r15	
    9130:	b0 12 8e 47 	call	#0x478e	
    9134:	7f 93       	cmp.b	#-1,	r15	;r3 As==11
    9136:	09 24       	jz	$+20     	;abs 0x914a
    9138:	4d 4f       	mov.b	r15,	r13	
    913a:	0d 5d       	rla	r13		
    913c:	0e 4d       	mov	r13,	r14	
    913e:	0e 5e       	rla	r14		
    9140:	0e 5e       	rla	r14		
    9142:	0e 5e       	rla	r14		
    9144:	0e 8d       	sub	r13,	r14	
    9146:	fe d2 4b 13 	bis.b	#8,	4939(r14);r2 As==11, 0x134b(r14)
    914a:	0f 4b       	mov	r11,	r15	
    914c:	b0 12 8e 47 	call	#0x478e	
    9150:	7f 93       	cmp.b	#-1,	r15	;r3 As==11
    9152:	0d 24       	jz	$+28     	;abs 0x916e
    9154:	4d 4f       	mov.b	r15,	r13	
    9156:	0d 5d       	rla	r13		
    9158:	0e 4d       	mov	r13,	r14	
    915a:	0e 5e       	rla	r14		
    915c:	0e 5e       	rla	r14		
    915e:	0e 5e       	rla	r14		
    9160:	0e 8d       	sub	r13,	r14	
    9162:	3e 50 46 13 	add	#4934,	r14	;#0x1346
    9166:	ce 43 0d 00 	mov.b	#0,	13(r14)	;r3 As==00, 0x000d(r14)
    916a:	ce 43 0c 00 	mov.b	#0,	12(r14)	;r3 As==00, 0x000c(r14)
    916e:	82 4b ae 17 	mov	r11,	&0x17ae	
    9172:	92 48 04 00 b0 17 	mov	4(r8),	&0x17b0	;0x0004(r8)
    9178:	d2 48 07 00 b3 17 	mov.b	7(r8),	&0x17b3	;0x0007(r8)
    917e:	0f 49       	mov	r9,	r15	
    9180:	0f 8a       	sub	r10,	r15	
    9182:	3f 90 15 00 	cmp	#21,	r15	;#0x0015
    9186:	02 28       	jnc	$+6      	;abs 0x918c
    9188:	b0 12 68 5d 	call	#0x5d68	
    918c:	c2 93 32 11 	tst.b	&0x1132	
    9190:	06 20       	jnz	$+14     	;abs 0x919e
    9192:	39 93       	cmp	#-1,	r9	;r3 As==11
    9194:	04 20       	jnz	$+10     	;abs 0x919e
    9196:	3a 93       	cmp	#-1,	r10	;r3 As==11
    9198:	02 24       	jz	$+6      	;abs 0x919e
    919a:	b0 12 00 4e 	call	#0x4e00	
    919e:	c2 43 32 11 	mov.b	#0,	&0x1132	;r3 As==00
    91a2:	30 40 80 95 	br	#0x9580	
    91a6:	c2 93 34 11 	tst.b	&0x1134	
    91aa:	02 24       	jz	$+6      	;abs 0x91b0
    91ac:	30 40 80 95 	br	#0x9580	
    91b0:	1f 42 e6 12 	mov	&0x12e6,r15	
    91b4:	cf 43 00 00 	mov.b	#0,	0(r15)	;r3 As==00, 0x0000(r15)
    91b8:	1e 42 ae 17 	mov	&0x17ae,r14	
    91bc:	1f 42 e6 12 	mov	&0x12e6,r15	
    91c0:	cf 4e 02 00 	mov.b	r14,	2(r15)	;0x0002(r15)
    91c4:	8e 10       	swpb	r14		
    91c6:	cf 4e 01 00 	mov.b	r14,	1(r15)	;0x0001(r15)
    91ca:	1b 42 e6 12 	mov	&0x12e6,r11	
    91ce:	c2 93 c0 11 	tst.b	&0x11c0	
    91d2:	0e 24       	jz	$+30     	;abs 0x91f0
    91d4:	1f 42 b0 17 	mov	&0x17b0,r15	
    91d8:	cb 4f 04 00 	mov.b	r15,	4(r11)	;0x0004(r11)
    91dc:	8f 10       	swpb	r15		
    91de:	cb 4f 03 00 	mov.b	r15,	3(r11)	;0x0003(r11)
    91e2:	09 43       	clr	r9		
    91e4:	48 43       	clr.b	r8		
    91e6:	4b 43       	clr.b	r11		
    91e8:	5a 42 3a 11 	mov.b	&0x113a,r10	
    91ec:	1a 53       	inc	r10		
    91ee:	15 3c       	jmp	$+44     	;abs 0x921a
    91f0:	1f 42 ae 17 	mov	&0x17ae,r15	
    91f4:	3f 93       	cmp	#-1,	r15	;r3 As==11
    91f6:	0b 20       	jnz	$+24     	;abs 0x920e
    91f8:	1f 42 b0 17 	mov	&0x17b0,r15	
    91fc:	cb 4f 04 00 	mov.b	r15,	4(r11)	;0x0004(r11)
    9200:	8f 10       	swpb	r15		
    9202:	cb 4f 03 00 	mov.b	r15,	3(r11)	;0x0003(r11)
    9206:	fb d0 80 ff 00 00 	bis.b	#-128,	0(r11)	;#0xff80, 0x0000(r11)
    920c:	ea 3f       	jmp	$-42     	;abs 0x91e2
    920e:	1a 42 b0 17 	mov	&0x17b0,r10	
    9212:	b0 12 b2 47 	call	#0x47b2	
    9216:	0f 5a       	add	r10,	r15	
    9218:	df 3f       	jmp	$-64     	;abs 0x91d8
    921a:	3e 40 0a 00 	mov	#10,	r14	;#0x000a
    921e:	0f 4a       	mov	r10,	r15	
    9220:	0f 59       	add	r9,	r15	
    9222:	b0 12 40 9e 	call	#0x9e40	
    9226:	4d 4f       	mov.b	r15,	r13	
    9228:	0d 5d       	rla	r13		
    922a:	0e 4d       	mov	r13,	r14	
    922c:	0e 5e       	rla	r14		
    922e:	0e 5e       	rla	r14		
    9230:	0e 5e       	rla	r14		
    9232:	0e 8d       	sub	r13,	r14	
    9234:	5d 4e 4b 13 	mov.b	4939(r14),r13	;0x134b(r14)
    9238:	3d f0 03 00 	and	#3,	r13	;#0x0003
    923c:	3d 90 03 00 	cmp	#3,	r13	;#0x0003
    9240:	15 20       	jnz	$+44     	;abs 0x926c
    9242:	18 4e 46 13 	mov	4934(r14),r8	;0x1346(r14)
    9246:	4c 4b       	mov.b	r11,	r12	
    9248:	0d 4c       	mov	r12,	r13	
    924a:	0d 5d       	rla	r13		
    924c:	0c 5d       	add	r13,	r12	
    924e:	3c 50 90 12 	add	#4752,	r12	;#0x1290
    9252:	cc 48 14 00 	mov.b	r8,	20(r12)	;0x0014(r12)
    9256:	3c 50 13 00 	add	#19,	r12	;#0x0013
    925a:	0d 48       	mov	r8,	r13	
    925c:	8d 10       	swpb	r13		
    925e:	cc 4d 00 00 	mov.b	r13,	0(r12)	;0x0000(r12)
    9262:	dc 4e 4e 13 02 00 	mov.b	4942(r14),2(r12)	;0x134e(r14), 0x0002(r12)
    9268:	5b 53       	inc.b	r11		
    926a:	48 4f       	mov.b	r15,	r8	
    926c:	39 90 09 00 	cmp	#9,	r9	;#0x0009
    9270:	04 24       	jz	$+10     	;abs 0x927a
    9272:	19 53       	inc	r9		
    9274:	7b 90 07 00 	cmp.b	#7,	r11	;#0x0007
    9278:	d0 2b       	jnc	$-94     	;abs 0x921a
    927a:	c2 48 3a 11 	mov.b	r8,	&0x113a	
    927e:	5f 42 3c 11 	mov.b	&0x113c,r15	
    9282:	4e 4f       	mov.b	r15,	r14	
    9284:	5e 53       	inc.b	r14		
    9286:	c2 4e 3c 11 	mov.b	r14,	&0x113c	
    928a:	c2 4f 9d 12 	mov.b	r15,	&0x129d	
    928e:	4f 4b       	mov.b	r11,	r15	
    9290:	7f f0 0f 00 	and.b	#15,	r15	;#0x000f
    9294:	c2 4f 9c 12 	mov.b	r15,	&0x129c	
    9298:	1f 42 4c 11 	mov	&0x114c,r15	
    929c:	c2 4f c3 12 	mov.b	r15,	&0x12c3	
    92a0:	8f 10       	swpb	r15		
    92a2:	c2 4f c2 12 	mov.b	r15,	&0x12c2	
    92a6:	f2 43 96 12 	mov.b	#-1,	&0x1296	;r3 As==11
    92aa:	f2 43 97 12 	mov.b	#-1,	&0x1297	;r3 As==11
    92ae:	f2 40 70 00 9b 12 	mov.b	#112,	&0x129b	;#0x0070
    92b4:	4d 4b       	mov.b	r11,	r13	
    92b6:	4d 5d       	rla.b	r13		
    92b8:	4d 5b       	add.b	r11,	r13	
    92ba:	7d 50 07 00 	add.b	#7,	r13	;#0x0007
    92be:	3e 40 90 12 	mov	#4752,	r14	;#0x1290
    92c2:	7f 40 03 00 	mov.b	#3,	r15	;#0x0003
    92c6:	b0 12 64 65 	call	#0x6564	
    92ca:	4f 93       	tst.b	r15		
    92cc:	04 20       	jnz	$+10     	;abs 0x92d6
    92ce:	d2 43 34 11 	mov.b	#1,	&0x1134	;r3 As==01
    92d2:	30 40 80 95 	br	#0x9580	
    92d6:	6f 92       	cmp.b	#4,	r15	;r2 As==10
    92d8:	02 24       	jz	$+6      	;abs 0x92de
    92da:	30 40 80 95 	br	#0x9580	
    92de:	c2 43 38 11 	mov.b	#0,	&0x1138	;r3 As==00
    92e2:	30 40 80 95 	br	#0x9580	
    92e6:	c2 93 04 15 	tst.b	&0x1504	
    92ea:	02 20       	jnz	$+6      	;abs 0x92f0
    92ec:	b0 12 ca 6b 	call	#0x6bca	
    92f0:	1f 42 28 18 	mov	&0x1828,r15	
    92f4:	c2 93 04 15 	tst.b	&0x1504	
    92f8:	02 24       	jz	$+6      	;abs 0x92fe
    92fa:	30 40 80 95 	br	#0x9580	
    92fe:	82 4f 6e 11 	mov	r15,	&0x116e	
    9302:	30 40 80 95 	br	#0x9580	
    9306:	b0 12 66 4d 	call	#0x4d66	
    930a:	e2 43 2e 11 	mov.b	#2,	&0x112e	;r3 As==10
    930e:	b0 12 78 4d 	call	#0x4d78	
    9312:	5f 42 06 11 	mov.b	&0x1106,r15	
    9316:	4f 93       	tst.b	r15		
    9318:	05 24       	jz	$+12     	;abs 0x9324
    931a:	5f 93       	cmp.b	#1,	r15	;r3 As==01
    931c:	02 24       	jz	$+6      	;abs 0x9322
    931e:	30 40 80 95 	br	#0x9580	
    9322:	05 3c       	jmp	$+12     	;abs 0x932e
    9324:	4f 43       	clr.b	r15		
    9326:	b0 12 da 72 	call	#0x72da	
    932a:	30 40 80 95 	br	#0x9580	
    932e:	5f 43       	mov.b	#1,	r15	;r3 As==01
    9330:	b0 12 da 72 	call	#0x72da	
    9334:	30 40 80 95 	br	#0x9580	
    9338:	f2 93 05 11 	cmp.b	#-1,	&0x1105	;r3 As==11
    933c:	02 20       	jnz	$+6      	;abs 0x9342
    933e:	30 40 80 95 	br	#0x9580	
    9342:	c2 93 ab 17 	tst.b	&0x17ab	
    9346:	03 24       	jz	$+8      	;abs 0x934e
    9348:	3f 40 06 00 	mov	#6,	r15	;#0x0006
    934c:	02 3c       	jmp	$+6      	;abs 0x9352
    934e:	3f 40 05 00 	mov	#5,	r15	;#0x0005
    9352:	b0 12 0e 6d 	call	#0x6d0e	
    9356:	4f 93       	tst.b	r15		
    9358:	04 20       	jnz	$+10     	;abs 0x9362
    935a:	f2 43 05 11 	mov.b	#-1,	&0x1105	;r3 As==11
    935e:	30 40 80 95 	br	#0x9580	
    9362:	7f 40 1e 00 	mov.b	#30,	r15	;#0x001e
    9366:	b0 12 80 4d 	call	#0x4d80	
    936a:	30 40 80 95 	br	#0x9580	
    936e:	5b 42 04 11 	mov.b	&0x1104,r11	
    9372:	b0 12 66 4d 	call	#0x4d66	
    9376:	4e 4b       	mov.b	r11,	r14	
    9378:	0e 5e       	rla	r14		
    937a:	0d 4e       	mov	r14,	r13	
    937c:	3d 50 de 11 	add	#4574,	r13	;#0x11de
    9380:	8d 43 00 00 	mov	#0,	0(r13)	;r3 As==00, 0x0000(r13)
    9384:	8e 4d 12 18 	mov	r13,	6162(r14);0x1812(r14)
    9388:	b0 12 78 4d 	call	#0x4d78	
    938c:	d2 43 04 11 	mov.b	#1,	&0x1104	;r3 As==01
    9390:	4b 93       	tst.b	r11		
    9392:	02 24       	jz	$+6      	;abs 0x9398
    9394:	30 40 80 95 	br	#0x9580	
    9398:	b0 12 b6 6c 	call	#0x6cb6	
    939c:	30 40 80 95 	br	#0x9580	
    93a0:	5a 42 04 11 	mov.b	&0x1104,r10	
    93a4:	b0 12 66 4d 	call	#0x4d66	
    93a8:	49 4a       	mov.b	r10,	r9	
    93aa:	0d 49       	mov	r9,	r13	
    93ac:	0d 5d       	rla	r13		
    93ae:	1b 4d de 11 	mov	4574(r13),r11	;0x11de(r13)
    93b2:	b0 12 78 4d 	call	#0x4d78	
    93b6:	02 3c       	jmp	$+6      	;abs 0x93bc
    93b8:	1b 4b 02 00 	mov	2(r11),	r11	;0x0002(r11)
    93bc:	0b 93       	tst	r11		
    93be:	fc 23       	jnz	$-6      	;abs 0x93b8
    93c0:	b0 12 66 4d 	call	#0x4d66	
    93c4:	0e 49       	mov	r9,	r14	
    93c6:	0e 5e       	rla	r14		
    93c8:	8e 43 de 11 	mov	#0,	4574(r14);r3 As==00, 0x11de(r14)
    93cc:	4d 4a       	mov.b	r10,	r13	
    93ce:	0d 5d       	rla	r13		
    93d0:	3d 50 de 11 	add	#4574,	r13	;#0x11de
    93d4:	8e 4d 12 18 	mov	r13,	6162(r14);0x1812(r14)
    93d8:	b0 12 78 4d 	call	#0x4d78	
    93dc:	d2 43 04 11 	mov.b	#1,	&0x1104	;r3 As==01
    93e0:	4a 93       	tst.b	r10		
    93e2:	ce 20       	jnz	$+414    	;abs 0x9580
    93e4:	b0 12 b6 6c 	call	#0x6cb6	
    93e8:	cb 3c       	jmp	$+408    	;abs 0x9580
    93ea:	b0 12 66 4d 	call	#0x4d66	
    93ee:	82 43 d8 12 	mov	#0,	&0x12d8	;r3 As==00
    93f2:	b0 12 78 4d 	call	#0x4d78	
    93f6:	c4 3c       	jmp	$+394    	;abs 0x9580
    93f8:	c2 93 2c 11 	tst.b	&0x112c	
    93fc:	c1 24       	jz	$+388    	;abs 0x9580
    93fe:	f2 f0 fd ff 5e 14 	and.b	#-3,	&0x145e	;#0xfffd
    9404:	b0 12 a0 73 	call	#0x73a0	
    9408:	4a 4f       	mov.b	r15,	r10	
    940a:	b0 12 a0 73 	call	#0x73a0	
    940e:	4b 4f       	mov.b	r15,	r11	
    9410:	b0 12 a0 73 	call	#0x73a0	
    9414:	b0 12 60 73 	call	#0x7360	
    9418:	b0 12 90 73 	call	#0x7390	
    941c:	b0 12 40 73 	call	#0x7340	
    9420:	b0 12 50 73 	call	#0x7350	
    9424:	1d 42 be 11 	mov	&0x11be,r13	
    9428:	3d 90 03 00 	cmp	#3,	r13	;#0x0003
    942c:	04 24       	jz	$+10     	;abs 0x9436
    942e:	3d 90 05 00 	cmp	#5,	r13	;#0x0005
    9432:	a6 20       	jnz	$+334    	;abs 0x9580
    9434:	0f 3c       	jmp	$+32     	;abs 0x9454
    9436:	c2 43 2c 11 	mov.b	#0,	&0x112c	;r3 As==00
    943a:	c2 93 34 18 	tst.b	&0x1834	
    943e:	a0 20       	jnz	$+322    	;abs 0x9580
    9440:	4f 43       	clr.b	r15		
    9442:	b0 12 74 6d 	call	#0x6d74	
    9446:	4e 4a       	mov.b	r10,	r14	
    9448:	8e 10       	swpb	r14		
    944a:	4f 4b       	mov.b	r11,	r15	
    944c:	0e df       	bis	r15,	r14	
    944e:	82 4e 6c 11 	mov	r14,	&0x116c	
    9452:	96 3c       	jmp	$+302    	;abs 0x9580
    9454:	c2 43 2c 11 	mov.b	#0,	&0x112c	;r3 As==00
    9458:	d2 93 34 18 	cmp.b	#1,	&0x1834	;r3 As==01
    945c:	91 20       	jnz	$+292    	;abs 0x9580
    945e:	5f 43       	mov.b	#1,	r15	;r3 As==01
    9460:	b0 12 74 6d 	call	#0x6d74	
    9464:	8d 3c       	jmp	$+284    	;abs 0x9580
    9466:	1f 42 be 11 	mov	&0x11be,r15	
    946a:	3f 90 06 00 	cmp	#6,	r15	;#0x0006
    946e:	06 24       	jz	$+14     	;abs 0x947c
    9470:	3f 90 07 00 	cmp	#7,	r15	;#0x0007
    9474:	85 20       	jnz	$+268    	;abs 0x9580
    9476:	c2 43 2c 11 	mov.b	#0,	&0x112c	;r3 As==00
    947a:	82 3c       	jmp	$+262    	;abs 0x9580
    947c:	c2 43 2c 11 	mov.b	#0,	&0x112c	;r3 As==00
    9480:	c2 43 28 11 	mov.b	#0,	&0x1128	;r3 As==00
    9484:	7d 3c       	jmp	$+252    	;abs 0x9580
    9486:	d2 93 22 11 	cmp.b	#1,	&0x1122	;r3 As==01
    948a:	02 20       	jnz	$+6      	;abs 0x9490
    948c:	b0 12 32 74 	call	#0x7432	
    9490:	b0 12 66 4d 	call	#0x4d66	
    9494:	c2 43 22 11 	mov.b	#0,	&0x1122	;r3 As==00
    9498:	c2 43 24 11 	mov.b	#0,	&0x1124	;r3 As==00
    949c:	b0 12 78 4d 	call	#0x4d78	
    94a0:	6f 3c       	jmp	$+224    	;abs 0x9580
    94a2:	b0 12 66 4d 	call	#0x4d66	
    94a6:	d2 42 ce 12 00 11 	mov.b	&0x12ce,&0x1100	
    94ac:	f2 40 03 00 26 11 	mov.b	#3,	&0x1126	;#0x0003
    94b2:	b0 12 78 4d 	call	#0x4d78	
    94b6:	5f 42 00 11 	mov.b	&0x1100,r15	
    94ba:	4f 93       	tst.b	r15		
    94bc:	03 24       	jz	$+8      	;abs 0x94c4
    94be:	5f 93       	cmp.b	#1,	r15	;r3 As==01
    94c0:	5f 20       	jnz	$+192    	;abs 0x9580
    94c2:	18 3c       	jmp	$+50     	;abs 0x94f4
    94c4:	c2 93 03 11 	tst.b	&0x1103	
    94c8:	0e 24       	jz	$+30     	;abs 0x94e6
    94ca:	c2 93 2c 11 	tst.b	&0x112c	
    94ce:	0b 20       	jnz	$+24     	;abs 0x94e6
    94d0:	d2 43 2c 11 	mov.b	#1,	&0x112c	;r3 As==01
    94d4:	b2 40 03 00 be 11 	mov	#3,	&0x11be	;#0x0003
    94da:	c2 43 34 18 	mov.b	#0,	&0x1834	;r3 As==00
    94de:	b0 12 8a 74 	call	#0x748a	
    94e2:	4f 93       	tst.b	r15		
    94e4:	4d 24       	jz	$+156    	;abs 0x9580
    94e6:	4f 43       	clr.b	r15		
    94e8:	b0 12 74 6d 	call	#0x6d74	
    94ec:	4f 43       	clr.b	r15		
    94ee:	b0 12 80 4d 	call	#0x4d80	
    94f2:	46 3c       	jmp	$+142    	;abs 0x9580
    94f4:	c2 93 03 11 	tst.b	&0x1103	
    94f8:	0e 24       	jz	$+30     	;abs 0x9516
    94fa:	c2 93 2c 11 	tst.b	&0x112c	
    94fe:	0b 20       	jnz	$+24     	;abs 0x9516
    9500:	d2 43 2c 11 	mov.b	#1,	&0x112c	;r3 As==01
    9504:	b2 40 05 00 be 11 	mov	#5,	&0x11be	;#0x0005
    950a:	d2 43 34 18 	mov.b	#1,	&0x1834	;r3 As==01
    950e:	b0 12 8a 74 	call	#0x748a	
    9512:	4f 93       	tst.b	r15		
    9514:	35 24       	jz	$+108    	;abs 0x9580
    9516:	5f 43       	mov.b	#1,	r15	;r3 As==01
    9518:	b0 12 74 6d 	call	#0x6d74	
    951c:	31 3c       	jmp	$+100    	;abs 0x9580
    951e:	b0 12 32 74 	call	#0x7432	
    9522:	2e 3c       	jmp	$+94     	;abs 0x9580
    9524:	b0 12 66 4d 	call	#0x4d66	
    9528:	f2 f0 bf ff 22 00 	and.b	#-65,	&0x0022	;#0xffbf
    952e:	b0 12 78 4d 	call	#0x4d78	
    9532:	b0 12 50 73 	call	#0x7350	
    9536:	b0 12 80 73 	call	#0x7380	
    953a:	b0 12 70 73 	call	#0x7370	
    953e:	b0 12 66 4d 	call	#0x4d66	
    9542:	f2 f0 7f 00 21 00 	and.b	#127,	&0x0021	;#0x007f
    9548:	b0 12 78 4d 	call	#0x4d78	
    954c:	7f 40 24 00 	mov.b	#36,	r15	;#0x0024
    9550:	b0 12 80 4d 	call	#0x4d80	
    9554:	15 3c       	jmp	$+44     	;abs 0x9580
    9556:	7f 40 37 00 	mov.b	#55,	r15	;#0x0037
    955a:	b0 12 0a 9a 	call	#0x9a0a	
    955e:	49 4f       	mov.b	r15,	r9	
    9560:	7f 93       	cmp.b	#-1,	r15	;r3 As==11
    9562:	02 24       	jz	$+6      	;abs 0x9568
    9564:	30 40 3a 87 	br	#0x873a	
    9568:	30 40 cc 87 	br	#0x87cc	
    956c:	4f 43       	clr.b	r15		
    956e:	b0 12 0a 9a 	call	#0x9a0a	
    9572:	49 4f       	mov.b	r15,	r9	
    9574:	7f 93       	cmp.b	#-1,	r15	;r3 As==11
    9576:	02 24       	jz	$+6      	;abs 0x957c
    9578:	30 40 54 88 	br	#0x8854	
    957c:	30 40 72 88 	br	#0x8872	
    9580:	31 50 0c 00 	add	#12,	r1	;#0x000c
    9584:	34 41       	pop	r4		
    9586:	35 41       	pop	r5		
    9588:	36 41       	pop	r6		
    958a:	37 41       	pop	r7		
    958c:	38 41       	pop	r8		
    958e:	39 41       	pop	r9		
    9590:	3a 41       	pop	r10		
    9592:	3b 41       	pop	r11		
    9594:	30 41       	ret			

00009596 <RealMainP__Scheduler__runNextTask>:
    9596:	f2 93 11 18 	cmp.b	#-1,	&0x1811	;r3 As==11
    959a:	08 24       	jz	$+18     	;abs 0x95ac
    959c:	b0 12 0c 4c 	call	#0x4c0c	
    95a0:	7f 93       	cmp.b	#-1,	r15	;r3 As==11
    95a2:	06 24       	jz	$+14     	;abs 0x95b0
    95a4:	b0 12 dc 7d 	call	#0x7ddc	
    95a8:	5f 43       	mov.b	#1,	r15	;r3 As==01
    95aa:	30 41       	ret			
    95ac:	4f 43       	clr.b	r15		
    95ae:	30 41       	ret			
    95b0:	4f 43       	clr.b	r15		
    95b2:	30 41       	ret			

000095b4 <sig_TIMERA0_VECTOR>:
    95b4:	0f 12       	push	r15		
    95b6:	0e 12       	push	r14		
    95b8:	0d 12       	push	r13		
    95ba:	0c 12       	push	r12		
    95bc:	4f 43       	clr.b	r15		
    95be:	b0 12 2a 4c 	call	#0x4c2a	
    95c2:	3c 41       	pop	r12		
    95c4:	3d 41       	pop	r13		
    95c6:	3e 41       	pop	r14		
    95c8:	3f 41       	pop	r15		
    95ca:	b1 c0 f0 00 00 00 	bic	#240,	0(r1)	;#0x00f0, 0x0000(r1)
    95d0:	00 13       	reti			

000095d2 <sig_TIMERA1_VECTOR>:
    95d2:	0f 12       	push	r15		
    95d4:	0e 12       	push	r14		
    95d6:	0d 12       	push	r13		
    95d8:	0c 12       	push	r12		
    95da:	1f 42 2e 01 	mov	&0x012e,r15	
    95de:	4f 4f       	mov.b	r15,	r15	
    95e0:	12 c3       	clrc			
    95e2:	4f 10       	rrc.b	r15		
    95e4:	b0 12 2a 4c 	call	#0x4c2a	
    95e8:	3c 41       	pop	r12		
    95ea:	3d 41       	pop	r13		
    95ec:	3e 41       	pop	r14		
    95ee:	3f 41       	pop	r15		
    95f0:	b1 c0 f0 00 00 00 	bic	#240,	0(r1)	;#0x00f0, 0x0000(r1)
    95f6:	00 13       	reti			

000095f8 <sig_TIMERB0_VECTOR>:
    95f8:	0f 12       	push	r15		
    95fa:	0e 12       	push	r14		
    95fc:	0d 12       	push	r13		
    95fe:	0c 12       	push	r12		
    9600:	4f 43       	clr.b	r15		
    9602:	b0 12 70 7a 	call	#0x7a70	
    9606:	3c 41       	pop	r12		
    9608:	3d 41       	pop	r13		
    960a:	3e 41       	pop	r14		
    960c:	3f 41       	pop	r15		
    960e:	b1 c0 f0 00 00 00 	bic	#240,	0(r1)	;#0x00f0, 0x0000(r1)
    9614:	00 13       	reti			

00009616 <sig_TIMERB1_VECTOR>:
    9616:	0f 12       	push	r15		
    9618:	0e 12       	push	r14		
    961a:	0d 12       	push	r13		
    961c:	0c 12       	push	r12		
    961e:	1f 42 1e 01 	mov	&0x011e,r15	
    9622:	4f 4f       	mov.b	r15,	r15	
    9624:	12 c3       	clrc			
    9626:	4f 10       	rrc.b	r15		
    9628:	b0 12 70 7a 	call	#0x7a70	
    962c:	3c 41       	pop	r12		
    962e:	3d 41       	pop	r13		
    9630:	3e 41       	pop	r14		
    9632:	3f 41       	pop	r15		
    9634:	b1 c0 f0 00 00 00 	bic	#240,	0(r1)	;#0x00f0, 0x0000(r1)
    963a:	00 13       	reti			

0000963c <sig_PORT1_VECTOR>:
    963c:	0f 12       	push	r15		
    963e:	0e 12       	push	r14		
    9640:	0d 12       	push	r13		
    9642:	0c 12       	push	r12		
    9644:	21 83       	decd	r1		
    9646:	5e 42 23 00 	mov.b	&0x0023,r14	
    964a:	5f 42 25 00 	mov.b	&0x0025,r15	
    964e:	4f fe       	and.b	r14,	r15	
    9650:	4f 4f       	mov.b	r15,	r15	
    9652:	81 4f 00 00 	mov	r15,	0(r1)	;0x0000(r1)
    9656:	91 b3 00 00 	bit	#1,	0(r1)	;r3 As==01, 0x0000(r1)
    965a:	0e 24       	jz	$+30     	;abs 0x9678
    965c:	f2 f0 fe ff 23 00 	and.b	#-2,	&0x0023	;#0xfffe
    9662:	92 93 0c 12 	cmp	#1,	&0x120c	;r3 As==01
    9666:	05 20       	jnz	$+12     	;abs 0x9672
    9668:	a2 43 0c 12 	mov	#2,	&0x120c	;r3 As==10
    966c:	b0 12 b2 76 	call	#0x76b2	
    9670:	58 3c       	jmp	$+178    	;abs 0x9722
    9672:	d2 53 2b 12 	inc.b	&0x122b	
    9676:	55 3c       	jmp	$+172    	;abs 0x9722
    9678:	a1 b3 00 00 	bit	#2,	0(r1)	;r3 As==10, 0x0000(r1)
    967c:	05 24       	jz	$+12     	;abs 0x9688
    967e:	5f 42 23 00 	mov.b	&0x0023,r15	
    9682:	7f f0 fd ff 	and.b	#-3,	r15	;#0xfffd
    9686:	4b 3c       	jmp	$+152    	;abs 0x971e
    9688:	a1 b2 00 00 	bit	#4,	0(r1)	;r2 As==10, 0x0000(r1)
    968c:	05 24       	jz	$+12     	;abs 0x9698
    968e:	5f 42 23 00 	mov.b	&0x0023,r15	
    9692:	7f f0 fb ff 	and.b	#-5,	r15	;#0xfffb
    9696:	43 3c       	jmp	$+136    	;abs 0x971e
    9698:	b1 b2 00 00 	bit	#8,	0(r1)	;r2 As==11, 0x0000(r1)
    969c:	05 24       	jz	$+12     	;abs 0x96a8
    969e:	5f 42 23 00 	mov.b	&0x0023,r15	
    96a2:	7f f0 f7 ff 	and.b	#-9,	r15	;#0xfff7
    96a6:	3b 3c       	jmp	$+120    	;abs 0x971e
    96a8:	b1 b0 10 00 00 00 	bit	#16,	0(r1)	;#0x0010, 0x0000(r1)
    96ae:	18 24       	jz	$+50     	;abs 0x96e0
    96b0:	f2 f0 ef ff 23 00 	and.b	#-17,	&0x0023	;#0xffef
    96b6:	a2 42 66 11 	mov	#4,	&0x1166	;r2 As==10
    96ba:	f2 f0 ef ff 25 00 	and.b	#-17,	&0x0025	;#0xffef
    96c0:	f2 f0 ef ff 23 00 	and.b	#-17,	&0x0023	;#0xffef
    96c6:	0e 43       	clr	r14		
    96c8:	7f 40 1d 00 	mov.b	#29,	r15	;#0x001d
    96cc:	b0 12 e6 5f 	call	#0x5fe6	
    96d0:	b0 12 a2 60 	call	#0x60a2	
    96d4:	b0 12 a2 5a 	call	#0x5aa2	
    96d8:	b0 12 b0 58 	call	#0x58b0	
    96dc:	6f 42       	mov.b	#4,	r15	;r2 As==10
    96de:	0b 3c       	jmp	$+24     	;abs 0x96f6
    96e0:	b1 b0 20 00 00 00 	bit	#32,	0(r1)	;#0x0020, 0x0000(r1)
    96e6:	0a 24       	jz	$+22     	;abs 0x96fc
    96e8:	f2 f0 df ff 23 00 	and.b	#-33,	&0x0023	;#0xffdf
    96ee:	b0 12 f4 60 	call	#0x60f4	
    96f2:	7f 40 22 00 	mov.b	#34,	r15	;#0x0022
    96f6:	b0 12 80 4d 	call	#0x4d80	
    96fa:	13 3c       	jmp	$+40     	;abs 0x9722
    96fc:	b1 b0 40 00 00 00 	bit	#64,	0(r1)	;#0x0040, 0x0000(r1)
    9702:	05 24       	jz	$+12     	;abs 0x970e
    9704:	5f 42 23 00 	mov.b	&0x0023,r15	
    9708:	7f f0 bf ff 	and.b	#-65,	r15	;#0xffbf
    970c:	08 3c       	jmp	$+18     	;abs 0x971e
    970e:	b1 b0 80 00 00 00 	bit	#128,	0(r1)	;#0x0080, 0x0000(r1)
    9714:	06 24       	jz	$+14     	;abs 0x9722
    9716:	5f 42 23 00 	mov.b	&0x0023,r15	
    971a:	7f f0 7f 00 	and.b	#127,	r15	;#0x007f
    971e:	c2 4f 23 00 	mov.b	r15,	&0x0023	
    9722:	21 53       	incd	r1		
    9724:	3c 41       	pop	r12		
    9726:	3d 41       	pop	r13		
    9728:	3e 41       	pop	r14		
    972a:	3f 41       	pop	r15		
    972c:	b1 c0 f0 00 00 00 	bic	#240,	0(r1)	;#0x00f0, 0x0000(r1)
    9732:	00 13       	reti			

00009734 <sig_PORT2_VECTOR>:
    9734:	0f 12       	push	r15		
    9736:	0e 12       	push	r14		
    9738:	21 83       	decd	r1		
    973a:	5e 42 2b 00 	mov.b	&0x002b,r14	
    973e:	5f 42 2d 00 	mov.b	&0x002d,r15	
    9742:	4f fe       	and.b	r14,	r15	
    9744:	4f 4f       	mov.b	r15,	r15	
    9746:	81 4f 00 00 	mov	r15,	0(r1)	;0x0000(r1)
    974a:	91 b3 00 00 	bit	#1,	0(r1)	;r3 As==01, 0x0000(r1)
    974e:	05 24       	jz	$+12     	;abs 0x975a
    9750:	5f 42 2b 00 	mov.b	&0x002b,r15	
    9754:	7f f0 fe ff 	and.b	#-2,	r15	;#0xfffe
    9758:	3b 3c       	jmp	$+120    	;abs 0x97d0
    975a:	a1 b3 00 00 	bit	#2,	0(r1)	;r3 As==10, 0x0000(r1)
    975e:	05 24       	jz	$+12     	;abs 0x976a
    9760:	5f 42 2b 00 	mov.b	&0x002b,r15	
    9764:	7f f0 fd ff 	and.b	#-3,	r15	;#0xfffd
    9768:	33 3c       	jmp	$+104    	;abs 0x97d0
    976a:	a1 b2 00 00 	bit	#4,	0(r1)	;r2 As==10, 0x0000(r1)
    976e:	05 24       	jz	$+12     	;abs 0x977a
    9770:	5f 42 2b 00 	mov.b	&0x002b,r15	
    9774:	7f f0 fb ff 	and.b	#-5,	r15	;#0xfffb
    9778:	2b 3c       	jmp	$+88     	;abs 0x97d0
    977a:	b1 b2 00 00 	bit	#8,	0(r1)	;r2 As==11, 0x0000(r1)
    977e:	05 24       	jz	$+12     	;abs 0x978a
    9780:	5f 42 2b 00 	mov.b	&0x002b,r15	
    9784:	7f f0 f7 ff 	and.b	#-9,	r15	;#0xfff7
    9788:	23 3c       	jmp	$+72     	;abs 0x97d0
    978a:	b1 b0 10 00 00 00 	bit	#16,	0(r1)	;#0x0010, 0x0000(r1)
    9790:	05 24       	jz	$+12     	;abs 0x979c
    9792:	5f 42 2b 00 	mov.b	&0x002b,r15	
    9796:	7f f0 ef ff 	and.b	#-17,	r15	;#0xffef
    979a:	1a 3c       	jmp	$+54     	;abs 0x97d0
    979c:	b1 b0 20 00 00 00 	bit	#32,	0(r1)	;#0x0020, 0x0000(r1)
    97a2:	05 24       	jz	$+12     	;abs 0x97ae
    97a4:	5f 42 2b 00 	mov.b	&0x002b,r15	
    97a8:	7f f0 df ff 	and.b	#-33,	r15	;#0xffdf
    97ac:	11 3c       	jmp	$+36     	;abs 0x97d0
    97ae:	b1 b0 40 00 00 00 	bit	#64,	0(r1)	;#0x0040, 0x0000(r1)
    97b4:	05 24       	jz	$+12     	;abs 0x97c0
    97b6:	5f 42 2b 00 	mov.b	&0x002b,r15	
    97ba:	7f f0 bf ff 	and.b	#-65,	r15	;#0xffbf
    97be:	08 3c       	jmp	$+18     	;abs 0x97d0
    97c0:	b1 b0 80 00 00 00 	bit	#128,	0(r1)	;#0x0080, 0x0000(r1)
    97c6:	06 24       	jz	$+14     	;abs 0x97d4
    97c8:	5f 42 2b 00 	mov.b	&0x002b,r15	
    97cc:	7f f0 7f 00 	and.b	#127,	r15	;#0x007f
    97d0:	c2 4f 2b 00 	mov.b	r15,	&0x002b	
    97d4:	21 53       	incd	r1		
    97d6:	3e 41       	pop	r14		
    97d8:	3f 41       	pop	r15		
    97da:	b1 c0 f0 00 00 00 	bic	#240,	0(r1)	;#0x00f0, 0x0000(r1)
    97e0:	00 13       	reti			

000097e2 <sig_UART0RX_VECTOR>:
    97e2:	0f 12       	push	r15		
    97e4:	0e 12       	push	r14		
    97e6:	0d 12       	push	r13		
    97e8:	0c 12       	push	r12		
    97ea:	5e 42 76 00 	mov.b	&0x0076,r14	
    97ee:	5f 42 62 11 	mov.b	&0x1162,r15	
    97f2:	4f 93       	tst.b	r15		
    97f4:	1c 24       	jz	$+58     	;abs 0x982e
    97f6:	18 3c       	jmp	$+50     	;abs 0x9828
    97f8:	c2 93 16 11 	tst.b	&0x1116	
    97fc:	18 20       	jnz	$+50     	;abs 0x982e
    97fe:	1f 42 a4 14 	mov	&0x14a4,r15	
    9802:	0f 93       	tst	r15		
    9804:	04 24       	jz	$+10     	;abs 0x980e
    9806:	1f 52 18 18 	add	&0x1818,r15	
    980a:	cf 4e ff ff 	mov.b	r14,	-1(r15)	;0xffff(r15)
    980e:	92 92 1c 18 18 18 	cmp	&0x181c,&0x1818	
    9814:	03 2c       	jc	$+8      	;abs 0x981c
    9816:	b0 12 02 57 	call	#0x5702	
    981a:	09 3c       	jmp	$+20     	;abs 0x982e
    981c:	f2 f0 bf ff 00 00 	and.b	#-65,	&0x0000	;#0xffbf
    9822:	b0 12 4e 77 	call	#0x774e	
    9826:	03 3c       	jmp	$+8      	;abs 0x982e
    9828:	7f 90 03 00 	cmp.b	#3,	r15	;#0x0003
    982c:	e5 27       	jz	$-52     	;abs 0x97f8
    982e:	3c 41       	pop	r12		
    9830:	3d 41       	pop	r13		
    9832:	3e 41       	pop	r14		
    9834:	3f 41       	pop	r15		
    9836:	b1 c0 f0 00 00 00 	bic	#240,	0(r1)	;#0x00f0, 0x0000(r1)
    983c:	00 13       	reti			

0000983e <sig_UART0TX_VECTOR>:
    983e:	0f 12       	push	r15		
    9840:	5f 42 70 00 	mov.b	&0x0070,r15	
    9844:	3f f0 20 00 	and	#32,	r15	;#0x0020
    9848:	06 24       	jz	$+14     	;abs 0x9856
    984a:	5f 42 70 00 	mov.b	&0x0070,r15	
    984e:	2f f2       	and	#4,	r15	;r2 As==10
    9850:	02 24       	jz	$+6      	;abs 0x9856
    9852:	5f 42 70 00 	mov.b	&0x0070,r15	
    9856:	3f 41       	pop	r15		
    9858:	b1 c0 f0 00 00 00 	bic	#240,	0(r1)	;#0x00f0, 0x0000(r1)
    985e:	00 13       	reti			

00009860 <sig_ADC12_VECTOR>:
    9860:	0f 12       	push	r15		
    9862:	0e 12       	push	r14		
    9864:	0d 12       	push	r13		
    9866:	0c 12       	push	r12		
    9868:	0b 12       	push	r11		
    986a:	1f 42 a8 01 	mov	&0x01a8,r15	
    986e:	3f 90 05 00 	cmp	#5,	r15	;#0x0005
    9872:	0a 2c       	jc	$+22     	;abs 0x9888
    9874:	b0 12 92 46 	call	#0x4692	
    9878:	1e 42 a6 01 	mov	&0x01a6,r14	
    987c:	0e 93       	tst	r14		
    987e:	9b 24       	jz	$+312    	;abs 0x99b6
    9880:	3f f0 80 00 	and	#128,	r15	;#0x0080
    9884:	5e 43       	mov.b	#1,	r14	;r3 As==01
    9886:	01 24       	jz	$+4      	;abs 0x988a
    9888:	4e 43       	clr.b	r14		
    988a:	5f 42 38 13 	mov.b	&0x1338,r15	
    988e:	3f f0 1f 00 	and	#31,	r15	;#0x001f
    9892:	3f 53       	add	#-1,	r15	;r3 As==11
    9894:	3f 90 10 00 	cmp	#16,	r15	;#0x0010
    9898:	8c 2c       	jc	$+282    	;abs 0x99b2
    989a:	0f 5f       	rla	r15		
    989c:	10 4f c0 a0 	br	-24384(r15)	;0xa0c0(r15)
    98a0:	b0 12 ec 4a 	call	#0x4aec	
    98a4:	1e 42 40 01 	mov	&0x0140,r14	
    98a8:	5f 42 d4 11 	mov.b	&0x11d4,r15	
    98ac:	b0 12 38 52 	call	#0x5238	
    98b0:	82 3c       	jmp	$+262    	;abs 0x99b6
    98b2:	1e 42 40 01 	mov	&0x0140,r14	
    98b6:	5f 42 d4 11 	mov.b	&0x11d4,r15	
    98ba:	b0 12 38 52 	call	#0x5238	
    98be:	4f 93       	tst.b	r15		
    98c0:	7a 24       	jz	$+246    	;abs 0x99b6
    98c2:	77 3c       	jmp	$+240    	;abs 0x99b2
    98c4:	1f 42 d6 11 	mov	&0x11d6,r15	
    98c8:	0f 5f       	rla	r15		
    98ca:	1c 42 f8 12 	mov	&0x12f8,r12	
    98ce:	0c 5f       	add	r15,	r12	
    98d0:	5b 42 2c 12 	mov.b	&0x122c,r11	
    98d4:	0d 43       	clr	r13		
    98d6:	4f 4d       	mov.b	r13,	r15	
    98d8:	0f 5f       	rla	r15		
    98da:	3f 50 40 01 	add	#320,	r15	;#0x0140
    98de:	ac 4f 00 00 	mov	@r15,	0(r12)	;0x0000(r12)
    98e2:	2c 53       	incd	r12		
    98e4:	1d 53       	inc	r13		
    98e6:	0d 9b       	cmp	r11,	r13	
    98e8:	f6 2b       	jnc	$-18     	;abs 0x98d6
    98ea:	1b 52 d6 11 	add	&0x11d6,r11	
    98ee:	82 4b d6 11 	mov	r11,	&0x11d6	
    98f2:	4e 93       	tst.b	r14		
    98f4:	03 20       	jnz	$+8      	;abs 0x98fc
    98f6:	82 9b e0 11 	cmp	r11,	&0x11e0	
    98fa:	5d 20       	jnz	$+188    	;abs 0x99b6
    98fc:	b0 12 ec 4a 	call	#0x4aec	
    9900:	82 43 d6 11 	mov	#0,	&0x11d6	;r3 As==00
    9904:	58 3c       	jmp	$+178    	;abs 0x99b6
    9906:	1d 42 d6 11 	mov	&0x11d6,r13	
    990a:	0f 4d       	mov	r13,	r15	
    990c:	0f 5f       	rla	r15		
    990e:	1b 42 f8 12 	mov	&0x12f8,r11	
    9912:	0b 5f       	add	r15,	r11	
    9914:	1f 42 e0 11 	mov	&0x11e0,r15	
    9918:	0f 8d       	sub	r13,	r15	
    991a:	0d 4f       	mov	r15,	r13	
    991c:	3f 90 11 00 	cmp	#17,	r15	;#0x0011
    9920:	02 28       	jnc	$+6      	;abs 0x9926
    9922:	3d 40 10 00 	mov	#16,	r13	;#0x0010
    9926:	0c 43       	clr	r12		
    9928:	4f 4c       	mov.b	r12,	r15	
    992a:	0f 5f       	rla	r15		
    992c:	3f 50 40 01 	add	#320,	r15	;#0x0140
    9930:	ab 4f 00 00 	mov	@r15,	0(r11)	;0x0000(r11)
    9934:	2b 53       	incd	r11		
    9936:	1c 53       	inc	r12		
    9938:	0c 9d       	cmp	r13,	r12	
    993a:	f6 2b       	jnc	$-18     	;abs 0x9928
    993c:	1d 52 d6 11 	add	&0x11d6,r13	
    9940:	82 4d d6 11 	mov	r13,	&0x11d6	
    9944:	4e 93       	tst.b	r14		
    9946:	04 20       	jnz	$+10     	;abs 0x9950
    9948:	1f 42 e0 11 	mov	&0x11e0,r15	
    994c:	0f 9d       	cmp	r13,	r15	
    994e:	09 20       	jnz	$+20     	;abs 0x9962
    9950:	b0 12 ec 4a 	call	#0x4aec	
    9954:	82 43 d6 11 	mov	#0,	&0x11d6	;r3 As==00
    9958:	5f 42 d4 11 	mov.b	&0x11d4,r15	
    995c:	b0 12 8c 56 	call	#0x568c	
    9960:	2a 3c       	jmp	$+86     	;abs 0x99b6
    9962:	0f 8d       	sub	r13,	r15	
    9964:	3f 90 10 00 	cmp	#16,	r15	;#0x0010
    9968:	26 2c       	jc	$+78     	;abs 0x99b6
    996a:	4f 43       	clr.b	r15		
    996c:	b0 12 18 47 	call	#0x4718	
    9970:	4e 4f       	mov.b	r15,	r14	
    9972:	7e d0 80 ff 	bis.b	#-128,	r14	;#0xff80
    9976:	5f 42 e0 11 	mov.b	&0x11e0,r15	
    997a:	5f 82 d6 11 	sub.b	&0x11d6,r15	
    997e:	b0 12 78 46 	call	#0x4678	
    9982:	19 3c       	jmp	$+52     	;abs 0x99b6
    9984:	1d 42 f8 12 	mov	&0x12f8,r13	
    9988:	4e 43       	clr.b	r14		
    998a:	4f 4e       	mov.b	r14,	r15	
    998c:	0f 5f       	rla	r15		
    998e:	3f 50 40 01 	add	#320,	r15	;#0x0140
    9992:	ad 4f 00 00 	mov	@r15,	0(r13)	;0x0000(r13)
    9996:	2d 53       	incd	r13		
    9998:	5e 53       	inc.b	r14		
    999a:	4f 4e       	mov.b	r14,	r15	
    999c:	1f 92 e0 11 	cmp	&0x11e0,r15	
    99a0:	f4 2b       	jnc	$-22     	;abs 0x998a
    99a2:	5f 42 d4 11 	mov.b	&0x11d4,r15	
    99a6:	b0 12 8c 56 	call	#0x568c	
    99aa:	82 4f f8 12 	mov	r15,	&0x12f8	
    99ae:	0f 93       	tst	r15		
    99b0:	02 20       	jnz	$+6      	;abs 0x99b6
    99b2:	b0 12 ec 4a 	call	#0x4aec	
    99b6:	3b 41       	pop	r11		
    99b8:	3c 41       	pop	r12		
    99ba:	3d 41       	pop	r13		
    99bc:	3e 41       	pop	r14		
    99be:	3f 41       	pop	r15		
    99c0:	b1 c0 f0 00 00 00 	bic	#240,	0(r1)	;#0x00f0, 0x0000(r1)
    99c6:	00 13       	reti			

000099c8 <LinkEstimatorP__initNeighborIdx>:
    99c8:	4d 4f       	mov.b	r15,	r13	
    99ca:	0d 5d       	rla	r13		
    99cc:	0f 4d       	mov	r13,	r15	
    99ce:	0f 5f       	rla	r15		
    99d0:	0f 5f       	rla	r15		
    99d2:	0f 5f       	rla	r15		
    99d4:	0f 8d       	sub	r13,	r15	
    99d6:	3f 50 46 13 	add	#4934,	r15	;#0x1346
    99da:	8f 4e 00 00 	mov	r14,	0(r15)	;0x0000(r15)
    99de:	cf 43 02 00 	mov.b	#0,	2(r15)	;r3 As==00, 0x0002(r15)
    99e2:	cf 43 03 00 	mov.b	#0,	3(r15)	;r3 As==00, 0x0003(r15)
    99e6:	cf 43 04 00 	mov.b	#0,	4(r15)	;r3 As==00, 0x0004(r15)
    99ea:	ff 40 05 00 05 00 	mov.b	#5,	5(r15)	;#0x0005, 0x0005(r15)
    99f0:	ff 40 06 00 06 00 	mov.b	#6,	6(r15)	;#0x0006, 0x0006(r15)
    99f6:	ff 40 06 00 07 00 	mov.b	#6,	7(r15)	;#0x0006, 0x0007(r15)
    99fc:	cf 43 08 00 	mov.b	#0,	8(r15)	;r3 As==00, 0x0008(r15)
    9a00:	cf 43 09 00 	mov.b	#0,	9(r15)	;r3 As==00, 0x0009(r15)
    9a04:	8f 43 0a 00 	mov	#0,	10(r15)	;r3 As==00, 0x000a(r15)
    9a08:	30 41       	ret			

00009a0a <LinkEstimatorP__findWorstNeighborIdx>:
    9a0a:	0b 12       	push	r11		
    9a0c:	0a 12       	push	r10		
    9a0e:	09 12       	push	r9		
    9a10:	3e 40 4b 13 	mov	#4939,	r14	;#0x134b
    9a14:	0a 43       	clr	r10		
    9a16:	7d 43       	mov.b	#-1,	r13	;r3 As==11
    9a18:	4c 43       	clr.b	r12		
    9a1a:	6b 4e       	mov.b	@r14,	r11	
    9a1c:	1b b3       	bit	#1,	r11	;r3 As==01
    9a1e:	0a 24       	jz	$+22     	;abs 0x9a34
    9a20:	2b b3       	bit	#2,	r11	;r3 As==10
    9a22:	08 24       	jz	$+18     	;abs 0x9a34
    9a24:	3b f2       	and	#8,	r11	;r2 As==11
    9a26:	06 20       	jnz	$+14     	;abs 0x9a34
    9a28:	1b 4e 05 00 	mov	5(r14),	r11	;0x0005(r14)
    9a2c:	0b 9a       	cmp	r10,	r11	
    9a2e:	02 28       	jnc	$+6      	;abs 0x9a34
    9a30:	0a 4b       	mov	r11,	r10	
    9a32:	4d 4c       	mov.b	r12,	r13	
    9a34:	5c 53       	inc.b	r12		
    9a36:	3e 50 0e 00 	add	#14,	r14	;#0x000e
    9a3a:	7c 90 0a 00 	cmp.b	#10,	r12	;#0x000a
    9a3e:	ed 23       	jnz	$-36     	;abs 0x9a1a
    9a40:	4f 4f       	mov.b	r15,	r15	
    9a42:	0a 9f       	cmp	r15,	r10	
    9a44:	01 2c       	jc	$+4      	;abs 0x9a48
    9a46:	7d 43       	mov.b	#-1,	r13	;r3 As==11
    9a48:	4f 4d       	mov.b	r13,	r15	
    9a4a:	39 41       	pop	r9		
    9a4c:	3a 41       	pop	r10		
    9a4e:	3b 41       	pop	r11		
    9a50:	30 41       	ret			

00009a52 <CtpRoutingEngineP__0__routingTableFind>:
    9a52:	0d 4f       	mov	r15,	r13	
    9a54:	5c 42 e2 11 	mov.b	&0x11e2,r12	
    9a58:	3f 93       	cmp	#-1,	r15	;r3 As==11
    9a5a:	04 24       	jz	$+10     	;abs 0x9a64
    9a5c:	3e 40 34 12 	mov	#4660,	r14	;#0x1234
    9a60:	4f 43       	clr.b	r15		
    9a62:	07 3c       	jmp	$+16     	;abs 0x9a72
    9a64:	4f 4c       	mov.b	r12,	r15	
    9a66:	30 41       	ret			
    9a68:	3e 52       	add	#8,	r14	;r2 As==11
    9a6a:	8e 9d f8 ff 	cmp	r13,	-8(r14)	;0xfff8(r14)
    9a6e:	03 24       	jz	$+8      	;abs 0x9a76
    9a70:	5f 53       	inc.b	r15		
    9a72:	4f 9c       	cmp.b	r12,	r15	
    9a74:	f9 23       	jnz	$-12     	;abs 0x9a68
    9a76:	30 41       	ret			

00009a78 <LinkEstimatorP__updateNeighborEntryIdx>:
    9a78:	0b 12       	push	r11		
    9a7a:	0a 12       	push	r10		
    9a7c:	09 12       	push	r9		
    9a7e:	08 12       	push	r8		
    9a80:	07 12       	push	r7		
    9a82:	4f 4f       	mov.b	r15,	r15	
    9a84:	0c 4f       	mov	r15,	r12	
    9a86:	0c 5c       	rla	r12		
    9a88:	0d 4c       	mov	r12,	r13	
    9a8a:	0d 5d       	rla	r13		
    9a8c:	0d 5d       	rla	r13		
    9a8e:	0d 5d       	rla	r13		
    9a90:	0d 8c       	sub	r12,	r13	
    9a92:	0c 4d       	mov	r13,	r12	
    9a94:	3c 50 4a 13 	add	#4938,	r12	;#0x134a
    9a98:	5b 4c 01 00 	mov.b	1(r12),	r11	;0x0001(r12)
    9a9c:	2b f2       	and	#4,	r11	;r2 As==10
    9a9e:	05 24       	jz	$+12     	;abs 0x9aaa
    9aa0:	cd 4e 48 13 	mov.b	r14,	4936(r13);0x1348(r13)
    9aa4:	fc f0 fb ff 01 00 	and.b	#-5,	1(r12)	;#0xfffb, 0x0001(r12)
    9aaa:	0c 4f       	mov	r15,	r12	
    9aac:	0c 5c       	rla	r12		
    9aae:	0d 4c       	mov	r12,	r13	
    9ab0:	0d 5d       	rla	r13		
    9ab2:	0d 5d       	rla	r13		
    9ab4:	0d 5d       	rla	r13		
    9ab6:	0d 8c       	sub	r12,	r13	
    9ab8:	0c 4d       	mov	r13,	r12	
    9aba:	3c 50 48 13 	add	#4936,	r12	;#0x1348
    9abe:	4b 4e       	mov.b	r14,	r11	
    9ac0:	6b 8c       	sub.b	@r12,	r11	
    9ac2:	cc 4e 00 00 	mov.b	r14,	0(r12)	;0x0000(r12)
    9ac6:	dc 53 01 00 	inc.b	1(r12)		;0x0001(r12)
    9aca:	0a 4d       	mov	r13,	r10	
    9acc:	3a 50 4c 13 	add	#4940,	r10	;#0x134c
    9ad0:	fa 40 06 00 00 00 	mov.b	#6,	0(r10)	;#0x0006, 0x0000(r10)
    9ad6:	4b 93       	tst.b	r11		
    9ad8:	17 24       	jz	$+48     	;abs 0x9b08
    9ada:	0e 4d       	mov	r13,	r14	
    9adc:	3e 50 4a 13 	add	#4938,	r14	;#0x134a
    9ae0:	69 4e       	mov.b	@r14,	r9	
    9ae2:	79 53       	add.b	#-1,	r9	;r3 As==11
    9ae4:	49 5b       	add.b	r11,	r9	
    9ae6:	ce 49 00 00 	mov.b	r9,	0(r14)	;0x0000(r14)
    9aea:	7b 90 0b 00 	cmp.b	#11,	r11	;#0x000b
    9aee:	0c 28       	jnc	$+26     	;abs 0x9b08
    9af0:	ce 43 00 00 	mov.b	#0,	0(r14)	;r3 As==00, 0x0000(r14)
    9af4:	dc 43 01 00 	mov.b	#1,	1(r12)	;r3 As==01, 0x0001(r12)
    9af8:	ca 43 01 00 	mov.b	#0,	1(r10)	;r3 As==00, 0x0001(r10)
    9afc:	3d 50 4e 13 	add	#4942,	r13	;#0x134e
    9b00:	cd 43 01 00 	mov.b	#0,	1(r13)	;r3 As==00, 0x0001(r13)
    9b04:	cd 43 00 00 	mov.b	#0,	0(r13)	;r3 As==00, 0x0000(r13)
    9b08:	0f 5f       	rla	r15		
    9b0a:	0e 4f       	mov	r15,	r14	
    9b0c:	0e 5e       	rla	r14		
    9b0e:	0e 5e       	rla	r14		
    9b10:	0e 5e       	rla	r14		
    9b12:	0e 8f       	sub	r15,	r14	
    9b14:	ee 93 49 13 	cmp.b	#2,	4937(r14);r3 As==10, 0x1349(r14)
    9b18:	8c 24       	jz	$+282    	;abs 0x9c32
    9b1a:	8b 28       	jnc	$+280    	;abs 0x9c32
    9b1c:	18 4e 46 13 	mov	4934(r14),r8	;0x1346(r14)
    9b20:	0a 43       	clr	r10		
    9b22:	0f 4a       	mov	r10,	r15	
    9b24:	0f 5f       	rla	r15		
    9b26:	0b 4f       	mov	r15,	r11	
    9b28:	0b 5b       	rla	r11		
    9b2a:	0b 5b       	rla	r11		
    9b2c:	0b 5b       	rla	r11		
    9b2e:	0b 8f       	sub	r15,	r11	
    9b30:	3b 50 46 13 	add	#4934,	r11	;#0x1346
    9b34:	28 9b       	cmp	@r11,	r8	
    9b36:	79 20       	jnz	$+244    	;abs 0x9c2a
    9b38:	5f 4b 05 00 	mov.b	5(r11),	r15	;0x0005(r11)
    9b3c:	1f b3       	bit	#1,	r15	;r3 As==01
    9b3e:	75 24       	jz	$+236    	;abs 0x9c2a
    9b40:	5e 4b 06 00 	mov.b	6(r11),	r14	;0x0006(r11)
    9b44:	4e 93       	tst.b	r14		
    9b46:	03 24       	jz	$+8      	;abs 0x9b4e
    9b48:	7e 53       	add.b	#-1,	r14	;r3 As==11
    9b4a:	cb 4e 06 00 	mov.b	r14,	6(r11)	;0x0006(r11)
    9b4e:	5e 4b 07 00 	mov.b	7(r11),	r14	;0x0007(r11)
    9b52:	4e 93       	tst.b	r14		
    9b54:	03 24       	jz	$+8      	;abs 0x9b5c
    9b56:	7e 53       	add.b	#-1,	r14	;r3 As==11
    9b58:	cb 4e 07 00 	mov.b	r14,	7(r11)	;0x0007(r11)
    9b5c:	8b 93 06 00 	tst	6(r11)		;0x0006(r11)
    9b60:	08 20       	jnz	$+18     	;abs 0x9b72
    9b62:	5f e3       	xor.b	#1,	r15	;r3 As==01
    9b64:	cb 4f 05 00 	mov.b	r15,	5(r11)	;0x0005(r11)
    9b68:	cb 43 09 00 	mov.b	#0,	9(r11)	;r3 As==00, 0x0009(r11)
    9b6c:	cb 43 08 00 	mov.b	#0,	8(r11)	;r3 As==00, 0x0008(r11)
    9b70:	2b 3c       	jmp	$+88     	;abs 0x9bc8
    9b72:	6f d3       	bis.b	#2,	r15	;r3 As==10
    9b74:	cb 4f 05 00 	mov.b	r15,	5(r11)	;0x0005(r11)
    9b78:	5d 4b 03 00 	mov.b	3(r11),	r13	;0x0003(r11)
    9b7c:	4e 4d       	mov.b	r13,	r14	
    9b7e:	5e 5b 04 00 	add.b	4(r11),	r14	;0x0004(r11)
    9b82:	7e 90 03 00 	cmp.b	#3,	r14	;#0x0003
    9b86:	02 2c       	jc	$+6      	;abs 0x9b8c
    9b88:	7e 40 03 00 	mov.b	#3,	r14	;#0x0003
    9b8c:	5c 4b 08 00 	mov.b	8(r11),	r12	;0x0008(r11)
    9b90:	0f 4c       	mov	r12,	r15	
    9b92:	0f 5f       	rla	r15		
    9b94:	0f 5f       	rla	r15		
    9b96:	0f 5f       	rla	r15		
    9b98:	07 4f       	mov	r15,	r7	
    9b9a:	07 5c       	add	r12,	r7	
    9b9c:	4d 4d       	mov.b	r13,	r13	
    9b9e:	09 4d       	mov	r13,	r9	
    9ba0:	89 10       	swpb	r9		
    9ba2:	4e 4e       	mov.b	r14,	r14	
    9ba4:	0f 49       	mov	r9,	r15	
    9ba6:	0f 8d       	sub	r13,	r15	
    9ba8:	b0 12 0e 9e 	call	#0x9e0e	
    9bac:	4f 4f       	mov.b	r15,	r15	
    9bae:	0f 57       	add	r7,	r15	
    9bb0:	3e 40 0a 00 	mov	#10,	r14	;#0x000a
    9bb4:	3f 50 05 00 	add	#5,	r15	;#0x0005
    9bb8:	b0 12 0e 9e 	call	#0x9e0e	
    9bbc:	cb 4f 08 00 	mov.b	r15,	8(r11)	;0x0008(r11)
    9bc0:	cb 43 03 00 	mov.b	#0,	3(r11)	;r3 As==00, 0x0003(r11)
    9bc4:	cb 43 04 00 	mov.b	#0,	4(r11)	;r3 As==00, 0x0004(r11)
    9bc8:	59 4b 09 00 	mov.b	9(r11),	r9	;0x0009(r11)
    9bcc:	5f 4b 08 00 	mov.b	8(r11),	r15	;0x0008(r11)
    9bd0:	4f 93       	tst.b	r15		
    9bd2:	18 24       	jz	$+50     	;abs 0x9c04
    9bd4:	49 93       	tst.b	r9		
    9bd6:	16 24       	jz	$+46     	;abs 0x9c04
    9bd8:	4e 4f       	mov.b	r15,	r14	
    9bda:	3f 40 01 fe 	mov	#-511,	r15	;#0xfe01
    9bde:	b0 12 ec 9d 	call	#0x9dec	
    9be2:	0f 5f       	rla	r15		
    9be4:	0d 4f       	mov	r15,	r13	
    9be6:	0d 5d       	rla	r13		
    9be8:	0d 5d       	rla	r13		
    9bea:	4e 49       	mov.b	r9,	r14	
    9bec:	0f 5d       	add	r13,	r15	
    9bee:	b0 12 ec 9d 	call	#0x9dec	
    9bf2:	3f 50 f6 ff 	add	#-10,	r15	;#0xfff6
    9bf6:	3f 90 00 01 	cmp	#256,	r15	;#0x0100
    9bfa:	02 28       	jnc	$+6      	;abs 0x9c00
    9bfc:	3f 40 3c 00 	mov	#60,	r15	;#0x003c
    9c00:	4f 4f       	mov.b	r15,	r15	
    9c02:	02 3c       	jmp	$+6      	;abs 0x9c08
    9c04:	7f 40 3c 00 	mov.b	#60,	r15	;#0x003c
    9c08:	1d 4b 0a 00 	mov	10(r11),r13	;0x000a(r11)
    9c0c:	0e 4d       	mov	r13,	r14	
    9c0e:	0e 5e       	rla	r14		
    9c10:	0e 5e       	rla	r14		
    9c12:	0e 5e       	rla	r14		
    9c14:	0d 5e       	add	r14,	r13	
    9c16:	3d 50 05 00 	add	#5,	r13	;#0x0005
    9c1a:	4f 4f       	mov.b	r15,	r15	
    9c1c:	3e 40 0a 00 	mov	#10,	r14	;#0x000a
    9c20:	0f 5d       	add	r13,	r15	
    9c22:	b0 12 ec 9d 	call	#0x9dec	
    9c26:	8b 4f 0a 00 	mov	r15,	10(r11)	;0x000a(r11)
    9c2a:	1a 53       	inc	r10		
    9c2c:	3a 90 0a 00 	cmp	#10,	r10	;#0x000a
    9c30:	78 23       	jnz	$-270    	;abs 0x9b22
    9c32:	37 41       	pop	r7		
    9c34:	38 41       	pop	r8		
    9c36:	39 41       	pop	r9		
    9c38:	3a 41       	pop	r10		
    9c3a:	3b 41       	pop	r11		
    9c3c:	30 41       	ret			

00009c3e <LinkEstimatorP__LinkEstimator__evicted>:
    9c3e:	0b 12       	push	r11		
    9c40:	0a 12       	push	r10		
    9c42:	09 12       	push	r9		
    9c44:	09 4f       	mov	r15,	r9	
    9c46:	b0 12 52 9a 	call	#0x9a52	
    9c4a:	4b 4f       	mov.b	r15,	r11	
    9c4c:	5a 42 e2 11 	mov.b	&0x11e2,r10	
    9c50:	4f 9a       	cmp.b	r10,	r15	
    9c52:	18 24       	jz	$+50     	;abs 0x9c84
    9c54:	7a 53       	add.b	#-1,	r10	;r3 As==11
    9c56:	c2 4a e2 11 	mov.b	r10,	&0x11e2	
    9c5a:	12 3c       	jmp	$+38     	;abs 0x9c80
    9c5c:	4e 4b       	mov.b	r11,	r14	
    9c5e:	0c 4e       	mov	r14,	r12	
    9c60:	0c 5c       	rla	r12		
    9c62:	0c 5c       	rla	r12		
    9c64:	0c 5c       	rla	r12		
    9c66:	1e 53       	inc	r14		
    9c68:	0e 5e       	rla	r14		
    9c6a:	0e 5e       	rla	r14		
    9c6c:	0e 5e       	rla	r14		
    9c6e:	3d 42       	mov	#8,	r13	;r2 As==11
    9c70:	3e 50 34 12 	add	#4660,	r14	;#0x1234
    9c74:	0f 4c       	mov	r12,	r15	
    9c76:	3f 50 34 12 	add	#4660,	r15	;#0x1234
    9c7a:	b0 12 a8 9e 	call	#0x9ea8	
    9c7e:	5b 53       	inc.b	r11		
    9c80:	4b 9a       	cmp.b	r10,	r11	
    9c82:	ec 2b       	jnc	$-38     	;abs 0x9c5c
    9c84:	19 92 ae 17 	cmp	&0x17ae,r9	
    9c88:	0e 20       	jnz	$+30     	;abs 0x9ca6
    9c8a:	b2 43 ae 17 	mov	#-1,	&0x17ae	;r3 As==11
    9c8e:	82 43 b0 17 	mov	#0,	&0x17b0	;r3 As==00
    9c92:	c2 43 b2 17 	mov.b	#0,	&0x17b2	;r3 As==00
    9c96:	c2 43 b3 17 	mov.b	#0,	&0x17b3	;r3 As==00
    9c9a:	d2 43 32 11 	mov.b	#1,	&0x1132	;r3 As==01
    9c9e:	7f 40 1a 00 	mov.b	#26,	r15	;#0x001a
    9ca2:	b0 12 80 4d 	call	#0x4d80	
    9ca6:	39 41       	pop	r9		
    9ca8:	3a 41       	pop	r10		
    9caa:	3b 41       	pop	r11		
    9cac:	30 41       	ret			

00009cae <CC2420TransmitP__loadTXFIFO>:
    9cae:	0b 12       	push	r11		
    9cb0:	0a 12       	push	r10		
    9cb2:	09 12       	push	r9		
    9cb4:	1b 42 d0 12 	mov	&0x12d0,r11	
    9cb8:	5a 4b 2a 00 	mov.b	42(r11),r10	;0x002a(r11)
    9cbc:	4a 93       	tst.b	r10		
    9cbe:	02 20       	jnz	$+6      	;abs 0x9cc4
    9cc0:	7a 40 1f 00 	mov.b	#31,	r10	;#0x001f
    9cc4:	b0 12 b0 58 	call	#0x58b0	
    9cc8:	c2 9a 29 12 	cmp.b	r10,	&0x1229	
    9ccc:	07 24       	jz	$+16     	;abs 0x9cdc
    9cce:	4e 4a       	mov.b	r10,	r14	
    9cd0:	3e d0 e0 80 	bis	#-32544,r14	;#0x80e0
    9cd4:	7f 40 15 00 	mov.b	#21,	r15	;#0x0015
    9cd8:	b0 12 e6 5f 	call	#0x5fe6	
    9cdc:	c2 4a 29 12 	mov.b	r10,	&0x1229	
    9ce0:	69 4b       	mov.b	@r11,	r9	
    9ce2:	b0 12 66 4d 	call	#0x4d66	
    9ce6:	4a 4f       	mov.b	r15,	r10	
    9ce8:	b0 12 7e 57 	call	#0x577e	
    9cec:	4f 93       	tst.b	r15		
    9cee:	04 24       	jz	$+10     	;abs 0x9cf8
    9cf0:	4f 4a       	mov.b	r10,	r15	
    9cf2:	b0 12 78 4d 	call	#0x4d78	
    9cf6:	20 3c       	jmp	$+66     	;abs 0x9d38
    9cf8:	4f 4a       	mov.b	r10,	r15	
    9cfa:	b0 12 78 4d 	call	#0x4d78	
    9cfe:	b2 40 3e 00 f4 12 	mov	#62,	&0x12f4	;#0x003e
    9d04:	7f 40 3e 00 	mov.b	#62,	r15	;#0x003e
    9d08:	b0 12 9e 46 	call	#0x469e	
    9d0c:	4f 49       	mov.b	r9,	r15	
    9d0e:	7f 53       	add.b	#-1,	r15	;r3 As==11
    9d10:	4f 4f       	mov.b	r15,	r15	
    9d12:	c2 43 f2 12 	mov.b	#0,	&0x12f2	;r3 As==00
    9d16:	82 4b e0 12 	mov	r11,	&0x12e0	
    9d1a:	82 43 a4 14 	mov	#0,	&0x14a4	;r3 As==00
    9d1e:	82 4f 1c 18 	mov	r15,	&0x181c	
    9d22:	82 43 18 18 	mov	#0,	&0x1818	;r3 As==00
    9d26:	0f 93       	tst	r15		
    9d28:	03 24       	jz	$+8      	;abs 0x9d30
    9d2a:	b0 12 c0 58 	call	#0x58c0	
    9d2e:	04 3c       	jmp	$+10     	;abs 0x9d38
    9d30:	7f 40 0a 00 	mov.b	#10,	r15	;#0x000a
    9d34:	b0 12 80 4d 	call	#0x4d80	
    9d38:	39 41       	pop	r9		
    9d3a:	3a 41       	pop	r10		
    9d3c:	3b 41       	pop	r11		
    9d3e:	30 41       	ret			

00009d40 <__umulsidi3>:
    9d40:	0b 12       	push	r11		
    9d42:	0a 12       	push	r10		
    9d44:	09 12       	push	r9		
    9d46:	08 12       	push	r8		
    9d48:	07 12       	push	r7		
    9d4a:	06 12       	push	r6		
    9d4c:	05 12       	push	r5		
    9d4e:	04 12       	push	r4		
    9d50:	08 4c       	mov	r12,	r8	
    9d52:	09 4d       	mov	r13,	r9	
    9d54:	0a 43       	clr	r10		
    9d56:	0b 43       	clr	r11		
    9d58:	0c 4e       	mov	r14,	r12	
    9d5a:	0d 4f       	mov	r15,	r13	
    9d5c:	0e 43       	clr	r14		
    9d5e:	0f 43       	clr	r15		
    9d60:	b0 12 ac 9d 	call	#0x9dac	
    9d64:	34 41       	pop	r4		
    9d66:	35 41       	pop	r5		
    9d68:	36 41       	pop	r6		
    9d6a:	37 41       	pop	r7		
    9d6c:	38 41       	pop	r8		
    9d6e:	39 41       	pop	r9		
    9d70:	3a 41       	pop	r10		
    9d72:	3b 41       	pop	r11		
    9d74:	30 41       	ret			

00009d76 <__muldi3>:
    9d76:	0b 12       	push	r11		
    9d78:	0a 12       	push	r10		
    9d7a:	09 12       	push	r9		
    9d7c:	08 12       	push	r8		
    9d7e:	07 12       	push	r7		
    9d80:	06 12       	push	r6		
    9d82:	05 12       	push	r5		
    9d84:	04 12       	push	r4		
    9d86:	18 41 12 00 	mov	18(r1),	r8	;0x0012(r1)
    9d8a:	19 41 14 00 	mov	20(r1),	r9	;0x0014(r1)
    9d8e:	1a 41 16 00 	mov	22(r1),	r10	;0x0016(r1)
    9d92:	1b 41 18 00 	mov	24(r1),	r11	;0x0018(r1)
    9d96:	b0 12 ac 9d 	call	#0x9dac	
    9d9a:	34 41       	pop	r4		
    9d9c:	35 41       	pop	r5		
    9d9e:	36 41       	pop	r6		
    9da0:	37 41       	pop	r7		
    9da2:	38 41       	pop	r8		
    9da4:	39 41       	pop	r9		
    9da6:	3a 41       	pop	r10		
    9da8:	3b 41       	pop	r11		
    9daa:	30 41       	ret			

00009dac <__xabi_muldi3>:
    9dac:	04 43       	clr	r4		
    9dae:	05 43       	clr	r5		
    9db0:	06 43       	clr	r6		
    9db2:	07 43       	clr	r7		
    9db4:	0e 3c       	jmp	$+30     	;abs 0x9dd2
    9db6:	12 c3       	clrc			
    9db8:	0b 10       	rrc	r11		
    9dba:	0a 10       	rrc	r10		
    9dbc:	09 10       	rrc	r9		
    9dbe:	08 10       	rrc	r8		
    9dc0:	04 28       	jnc	$+10     	;abs 0x9dca
    9dc2:	04 5c       	add	r12,	r4	
    9dc4:	05 6d       	addc	r13,	r5	
    9dc6:	06 6e       	addc	r14,	r6	
    9dc8:	07 6f       	addc	r15,	r7	
    9dca:	0c 5c       	rla	r12		
    9dcc:	0d 6d       	rlc	r13		
    9dce:	0e 6e       	rlc	r14		
    9dd0:	0f 6f       	rlc	r15		
    9dd2:	08 93       	tst	r8		
    9dd4:	f0 23       	jnz	$-30     	;abs 0x9db6
    9dd6:	09 93       	tst	r9		
    9dd8:	ee 23       	jnz	$-34     	;abs 0x9db6
    9dda:	0a 93       	tst	r10		
    9ddc:	ec 23       	jnz	$-38     	;abs 0x9db6
    9dde:	0b 93       	tst	r11		
    9de0:	ea 23       	jnz	$-42     	;abs 0x9db6
    9de2:	0c 44       	mov	r4,	r12	
    9de4:	0d 45       	mov	r5,	r13	
    9de6:	0e 46       	mov	r6,	r14	
    9de8:	0f 47       	mov	r7,	r15	
    9dea:	30 41       	ret			

00009dec <__udivhi3>:
    9dec:	7c 40 10 00 	mov.b	#16,	r12	;#0x0010
    9df0:	0d 4e       	mov	r14,	r13	
    9df2:	0e 43       	clr	r14		
    9df4:	0f 5f       	rla	r15		
    9df6:	0e 6e       	rlc	r14		
    9df8:	0e 9d       	cmp	r13,	r14	
    9dfa:	02 28       	jnc	$+6      	;abs 0x9e00
    9dfc:	0e 8d       	sub	r13,	r14	
    9dfe:	1f d3       	bis	#1,	r15	;r3 As==01
    9e00:	1c 83       	dec	r12		
    9e02:	f8 23       	jnz	$-14     	;abs 0x9df4
    9e04:	30 41       	ret			

00009e06 <__umodhi3>:
    9e06:	b0 12 ec 9d 	call	#0x9dec	
    9e0a:	0f 4e       	mov	r14,	r15	
    9e0c:	30 41       	ret			

00009e0e <__divhi3>:
    9e0e:	0d 43       	clr	r13		
    9e10:	0f 93       	tst	r15		
    9e12:	04 34       	jge	$+10     	;abs 0x9e1c
    9e14:	3d 40 03 00 	mov	#3,	r13	;#0x0003
    9e18:	3f e3       	inv	r15		
    9e1a:	1f 53       	inc	r15		
    9e1c:	0e 93       	tst	r14		
    9e1e:	03 34       	jge	$+8      	;abs 0x9e26
    9e20:	5d e3       	xor.b	#1,	r13	;r3 As==01
    9e22:	3e e3       	inv	r14		
    9e24:	1e 53       	inc	r14		
    9e26:	0d 12       	push	r13		
    9e28:	b0 12 ec 9d 	call	#0x9dec	
    9e2c:	3d 41       	pop	r13		
    9e2e:	6d b3       	bit.b	#2,	r13	;r3 As==10
    9e30:	02 24       	jz	$+6      	;abs 0x9e36
    9e32:	3e e3       	inv	r14		
    9e34:	1e 53       	inc	r14		
    9e36:	5d b3       	bit.b	#1,	r13	;r3 As==01
    9e38:	02 24       	jz	$+6      	;abs 0x9e3e
    9e3a:	3f e3       	inv	r15		
    9e3c:	1f 53       	inc	r15		
    9e3e:	30 41       	ret			

00009e40 <__modhi3>:
    9e40:	b0 12 0e 9e 	call	#0x9e0e	
    9e44:	0f 4e       	mov	r14,	r15	
    9e46:	30 41       	ret			

00009e48 <__udivsi3>:
    9e48:	0b 12       	push	r11		
    9e4a:	0a 12       	push	r10		
    9e4c:	09 12       	push	r9		
    9e4e:	79 40 20 00 	mov.b	#32,	r9	;#0x0020
    9e52:	0a 4c       	mov	r12,	r10	
    9e54:	0b 4d       	mov	r13,	r11	
    9e56:	0c 43       	clr	r12		
    9e58:	0d 43       	clr	r13		
    9e5a:	0e 5e       	rla	r14		
    9e5c:	0f 6f       	rlc	r15		
    9e5e:	0c 6c       	rlc	r12		
    9e60:	0d 6d       	rlc	r13		
    9e62:	0d 9b       	cmp	r11,	r13	
    9e64:	06 28       	jnc	$+14     	;abs 0x9e72
    9e66:	02 20       	jnz	$+6      	;abs 0x9e6c
    9e68:	0c 9a       	cmp	r10,	r12	
    9e6a:	03 28       	jnc	$+8      	;abs 0x9e72
    9e6c:	0c 8a       	sub	r10,	r12	
    9e6e:	0d 7b       	subc	r11,	r13	
    9e70:	1e d3       	bis	#1,	r14	;r3 As==01
    9e72:	19 83       	dec	r9		
    9e74:	f2 23       	jnz	$-26     	;abs 0x9e5a
    9e76:	39 41       	pop	r9		
    9e78:	3a 41       	pop	r10		
    9e7a:	3b 41       	pop	r11		
    9e7c:	30 41       	ret			

00009e7e <__umodsi3>:
    9e7e:	b0 12 48 9e 	call	#0x9e48	
    9e82:	0e 4c       	mov	r12,	r14	
    9e84:	0f 4d       	mov	r13,	r15	
    9e86:	30 41       	ret			

00009e88 <memcmp>:
    9e88:	0b 12       	push	r11		
    9e8a:	0d 93       	tst	r13		
    9e8c:	0a 24       	jz	$+22     	;abs 0x9ea2
    9e8e:	7b 4f       	mov.b	@r15+,	r11	
    9e90:	7c 4e       	mov.b	@r14+,	r12	
    9e92:	4b 9c       	cmp.b	r12,	r11	
    9e94:	04 24       	jz	$+10     	;abs 0x9e9e
    9e96:	4f 4b       	mov.b	r11,	r15	
    9e98:	4e 4c       	mov.b	r12,	r14	
    9e9a:	0f 8e       	sub	r14,	r15	
    9e9c:	03 3c       	jmp	$+8      	;abs 0x9ea4
    9e9e:	3d 53       	add	#-1,	r13	;r3 As==11
    9ea0:	f4 3f       	jmp	$-22     	;abs 0x9e8a
    9ea2:	0f 43       	clr	r15		
    9ea4:	3b 41       	pop	r11		
    9ea6:	30 41       	ret			

00009ea8 <memcpy>:
    9ea8:	0b 12       	push	r11		
    9eaa:	0a 12       	push	r10		
    9eac:	09 12       	push	r9		
    9eae:	08 12       	push	r8		
    9eb0:	07 12       	push	r7		
    9eb2:	0d 93       	tst	r13		
    9eb4:	70 24       	jz	$+226    	;abs 0x9f96
    9eb6:	0f 9e       	cmp	r14,	r15	
    9eb8:	6e 24       	jz	$+222    	;abs 0x9f96
    9eba:	34 2c       	jc	$+106    	;abs 0x9f24
    9ebc:	0c 4e       	mov	r14,	r12	
    9ebe:	0c df       	bis	r15,	r12	
    9ec0:	1c f3       	and	#1,	r12	;r3 As==01
    9ec2:	1b 24       	jz	$+56     	;abs 0x9efa
    9ec4:	0c 4e       	mov	r14,	r12	
    9ec6:	0c ef       	xor	r15,	r12	
    9ec8:	1c f3       	and	#1,	r12	;r3 As==01
    9eca:	07 20       	jnz	$+16     	;abs 0x9eda
    9ecc:	2d 93       	cmp	#2,	r13	;r3 As==10
    9ece:	07 28       	jnc	$+16     	;abs 0x9ede
    9ed0:	0b 4e       	mov	r14,	r11	
    9ed2:	1b f3       	and	#1,	r11	;r3 As==01
    9ed4:	2c 43       	mov	#2,	r12	;r3 As==10
    9ed6:	0c 8b       	sub	r11,	r12	
    9ed8:	03 3c       	jmp	$+8      	;abs 0x9ee0
    9eda:	0c 4d       	mov	r13,	r12	
    9edc:	01 3c       	jmp	$+4      	;abs 0x9ee0
    9ede:	1c 43       	mov	#1,	r12	;r3 As==01
    9ee0:	0d 8c       	sub	r12,	r13	
    9ee2:	0a 4c       	mov	r12,	r10	
    9ee4:	09 4e       	mov	r14,	r9	
    9ee6:	0b 4f       	mov	r15,	r11	
    9ee8:	fb 49 00 00 	mov.b	@r9+,	0(r11)	;0x0000(r11)
    9eec:	1b 53       	inc	r11		
    9eee:	3a 53       	add	#-1,	r10	;r3 As==11
    9ef0:	fb 23       	jnz	$-8      	;abs 0x9ee8
    9ef2:	0a 4f       	mov	r15,	r10	
    9ef4:	0a 5c       	add	r12,	r10	
    9ef6:	0e 5c       	add	r12,	r14	
    9ef8:	01 3c       	jmp	$+4      	;abs 0x9efc
    9efa:	0a 4f       	mov	r15,	r10	
    9efc:	0b 4d       	mov	r13,	r11	
    9efe:	12 c3       	clrc			
    9f00:	0b 10       	rrc	r11		
    9f02:	0b 24       	jz	$+24     	;abs 0x9f1a
    9f04:	09 4b       	mov	r11,	r9	
    9f06:	08 4e       	mov	r14,	r8	
    9f08:	0c 4a       	mov	r10,	r12	
    9f0a:	bc 48 00 00 	mov	@r8+,	0(r12)	;0x0000(r12)
    9f0e:	2c 53       	incd	r12		
    9f10:	39 53       	add	#-1,	r9	;r3 As==11
    9f12:	fb 23       	jnz	$-8      	;abs 0x9f0a
    9f14:	0b 5b       	rla	r11		
    9f16:	0e 5b       	add	r11,	r14	
    9f18:	0a 5b       	add	r11,	r10	
    9f1a:	1d f3       	and	#1,	r13	;r3 As==01
    9f1c:	3c 24       	jz	$+122    	;abs 0x9f96
    9f1e:	ea 4e 00 00 	mov.b	@r14,	0(r10)	;0x0000(r10)
    9f22:	39 3c       	jmp	$+116    	;abs 0x9f96
    9f24:	0e 5d       	add	r13,	r14	
    9f26:	0c 4f       	mov	r15,	r12	
    9f28:	0c 5d       	add	r13,	r12	
    9f2a:	0b 4c       	mov	r12,	r11	
    9f2c:	0b de       	bis	r14,	r11	
    9f2e:	1b f3       	and	#1,	r11	;r3 As==01
    9f30:	1b 24       	jz	$+56     	;abs 0x9f68
    9f32:	0b 4c       	mov	r12,	r11	
    9f34:	0b ee       	xor	r14,	r11	
    9f36:	1b f3       	and	#1,	r11	;r3 As==01
    9f38:	06 20       	jnz	$+14     	;abs 0x9f46
    9f3a:	3d 90 03 00 	cmp	#3,	r13	;#0x0003
    9f3e:	03 28       	jnc	$+8      	;abs 0x9f46
    9f40:	0b 4e       	mov	r14,	r11	
    9f42:	1b f3       	and	#1,	r11	;r3 As==01
    9f44:	01 3c       	jmp	$+4      	;abs 0x9f48
    9f46:	0b 4d       	mov	r13,	r11	
    9f48:	0d 8b       	sub	r11,	r13	
    9f4a:	09 4e       	mov	r14,	r9	
    9f4c:	0a 4c       	mov	r12,	r10	
    9f4e:	08 4b       	mov	r11,	r8	
    9f50:	08 8c       	sub	r12,	r8	
    9f52:	3a 53       	add	#-1,	r10	;r3 As==11
    9f54:	39 53       	add	#-1,	r9	;r3 As==11
    9f56:	ea 49 00 00 	mov.b	@r9,	0(r10)	;0x0000(r10)
    9f5a:	07 4a       	mov	r10,	r7	
    9f5c:	07 58       	add	r8,	r7	
    9f5e:	f9 23       	jnz	$-12     	;abs 0x9f52
    9f60:	3b e3       	inv	r11		
    9f62:	1b 53       	inc	r11		
    9f64:	0c 5b       	add	r11,	r12	
    9f66:	0e 5b       	add	r11,	r14	
    9f68:	0b 4d       	mov	r13,	r11	
    9f6a:	12 c3       	clrc			
    9f6c:	0b 10       	rrc	r11		
    9f6e:	0e 24       	jz	$+30     	;abs 0x9f8c
    9f70:	0a 4b       	mov	r11,	r10	
    9f72:	08 4e       	mov	r14,	r8	
    9f74:	09 4c       	mov	r12,	r9	
    9f76:	28 83       	decd	r8		
    9f78:	29 83       	decd	r9		
    9f7a:	a9 48 00 00 	mov	@r8,	0(r9)	;0x0000(r9)
    9f7e:	3a 53       	add	#-1,	r10	;r3 As==11
    9f80:	fa 23       	jnz	$-10     	;abs 0x9f76
    9f82:	0a 8b       	sub	r11,	r10	
    9f84:	0b 4a       	mov	r10,	r11	
    9f86:	0b 5b       	rla	r11		
    9f88:	0e 5b       	add	r11,	r14	
    9f8a:	0c 5b       	add	r11,	r12	
    9f8c:	1d f3       	and	#1,	r13	;r3 As==01
    9f8e:	03 24       	jz	$+8      	;abs 0x9f96
    9f90:	dc 4e ff ff ff ff 	mov.b	-1(r14),-1(r12)	;0xffff(r14), 0xffff(r12)
    9f96:	37 41       	pop	r7		
    9f98:	38 41       	pop	r8		
    9f9a:	39 41       	pop	r9		
    9f9c:	3a 41       	pop	r10		
    9f9e:	3b 41       	pop	r11		
    9fa0:	30 41       	ret			

00009fa2 <memset>:
    9fa2:	0b 12       	push	r11		
    9fa4:	0a 12       	push	r10		
    9fa6:	09 12       	push	r9		
    9fa8:	08 12       	push	r8		
    9faa:	3d 90 06 00 	cmp	#6,	r13	;#0x0006
    9fae:	09 2c       	jc	$+20     	;abs 0x9fc2
    9fb0:	0c 4f       	mov	r15,	r12	
    9fb2:	04 3c       	jmp	$+10     	;abs 0x9fbc
    9fb4:	cc 4e 00 00 	mov.b	r14,	0(r12)	;0x0000(r12)
    9fb8:	1c 53       	inc	r12		
    9fba:	3d 53       	add	#-1,	r13	;r3 As==11
    9fbc:	0d 93       	tst	r13		
    9fbe:	fa 23       	jnz	$-10     	;abs 0x9fb4
    9fc0:	20 3c       	jmp	$+66     	;abs 0xa002
    9fc2:	4e 4e       	mov.b	r14,	r14	
    9fc4:	4b 4e       	mov.b	r14,	r11	
    9fc6:	0b 93       	tst	r11		
    9fc8:	03 24       	jz	$+8      	;abs 0x9fd0
    9fca:	0c 4b       	mov	r11,	r12	
    9fcc:	8c 10       	swpb	r12		
    9fce:	0b dc       	bis	r12,	r11	
    9fd0:	1f b3       	bit	#1,	r15	;r3 As==01
    9fd2:	06 24       	jz	$+14     	;abs 0x9fe0
    9fd4:	3d 53       	add	#-1,	r13	;r3 As==11
    9fd6:	cf 4e 00 00 	mov.b	r14,	0(r15)	;0x0000(r15)
    9fda:	09 4f       	mov	r15,	r9	
    9fdc:	19 53       	inc	r9		
    9fde:	01 3c       	jmp	$+4      	;abs 0x9fe2
    9fe0:	09 4f       	mov	r15,	r9	
    9fe2:	0c 4d       	mov	r13,	r12	
    9fe4:	12 c3       	clrc			
    9fe6:	0c 10       	rrc	r12		
    9fe8:	0a 49       	mov	r9,	r10	
    9fea:	08 4c       	mov	r12,	r8	
    9fec:	8a 4b 00 00 	mov	r11,	0(r10)	;0x0000(r10)
    9ff0:	2a 53       	incd	r10		
    9ff2:	38 53       	add	#-1,	r8	;r3 As==11
    9ff4:	fb 23       	jnz	$-8      	;abs 0x9fec
    9ff6:	0c 5c       	rla	r12		
    9ff8:	0c 59       	add	r9,	r12	
    9ffa:	1d f3       	and	#1,	r13	;r3 As==01
    9ffc:	02 24       	jz	$+6      	;abs 0xa002
    9ffe:	cc 4e 00 00 	mov.b	r14,	0(r12)	;0x0000(r12)
    a002:	38 41       	pop	r8		
    a004:	39 41       	pop	r9		
    a006:	3a 41       	pop	r10		
    a008:	3b 41       	pop	r11		
    a00a:	30 41       	ret			

0000a00c <_unexpected_>:
    a00c:	00 13       	reti			

Disassembly of section .vectors:

0000ffe0 <__ivtbl_16>:
    ffe0:	10 46 34 97 10 46 10 46 3c 96 d2 95 b4 95 60 98     .F4..F.F<.....`.
    fff0:	3e 98 e2 97 10 46 10 46 16 96 f8 95 10 46 00 40     >....F.F.....F.@
